 8000  00 00 00 00 00 00 00 00 00 00 00 00 00 00 00 00  |................|
 8010  00 00 00 00 00 00 00 00 00 00 00 00 00 00 00 00  |................|
 8020  00 00 00 00 00 00 00 00 00 00 00 00 00 00 00 00  |................|
 8030  D8        CLD  
 8031  A9 84     LDA  #$84
 8033  85 10     STA  $10
 8035  A9 F0     LDA  #$F0
 8037  85 11     STA  $11
 8039  A2 21     LDX  #$21
 803B  BD F5 80  LDA  $80F5, X
 803E  95 00     STA  $00, X
 8040  CA        DEX  
 8041  D0 F8     BNE  $803B
 8043  AD F5 80  LDA  $80F5
 8046  85 00     STA  $00
 8048  A2 FF     LDX  #$FF
 804A  9A        TXS  
 804B  A2 78     LDX  #$78
 804D  A0 31     LDY  #$31
 804F  A9 00     LDA  #$00
 8051  B9 17 81  LDA  $8117, Y
 8054  91 1E     STA  ($1E), Y
 8056  88        DEY  
 8057  D0 F8     BNE  $8051
 8059  AD 17 81  LDA  $8117
 805C  92 1E     STA  ($1E)
 805E  20 83 89  JSR  $8983
 8061  CA        DEX  
 8062  CA        DEX  
 8063  CA        DEX  
 8064  CA        DEX  
 8065  A9 93     LDA  #$93
 8067  95 02     STA  $02, X
 8069  A9 B9     LDA  #$B9
 806B  95 03     STA  $03, X
 806D  A9 57     LDA  #$57
 806F  38        SEC  
 8070  E9 93     SBC  #$93
 8072  95 00     STA  $00, X
 8074  A9 BA     LDA  #$BA
 8076  E9 B9     SBC  #$B9
 8078  95 01     STA  $01, X
 807A  20 F5 90  JSR  $90F5
 807D  CA        DEX  
 807E  CA        DEX  
 807F  CA        DEX  
 8080  CA        DEX  
 8081  A9 57     LDA  #$57
 8083  95 02     STA  $02, X
 8085  A9 BA     LDA  #$BA
 8087  95 03     STA  $03, X
 8089  A9 59     LDA  #$59
 808B  38        SEC  
 808C  E9 57     SBC  #$57
 808E  95 00     STA  $00, X
 8090  A9 BA     LDA  #$BA
 8092  E9 BA     SBC  #$BA
 8094  95 01     STA  $01, X
 8096  20 F5 90  JSR  $90F5
 8099  9C 00 7C  STZ  $7C00
 809C  9C 80 7C  STZ  $7C80
 809F  9C 00 7D  STZ  $7D00
 80A2  9C 80 7D  STZ  $7D80
 80A5  9C 00 7E  STZ  $7E00
 80A8  9C 80 7E  STZ  $7E80
 80AB  9C 00 7F  STZ  $7F00
 80AE  9C 80 7F  STZ  $7F80
 80B1  A2 78     LDX  #$78
 80B3  8A        TXA  
 80B4  A2 FF     LDX  #$FF
 80B6  9A        TXS  
 80B7  AA        TAX  
 80B8  64 0E     STZ  $0E
 80BA  64 0F     STZ  $0F
 80BC  64 06     STZ  $06
 80BE  64 07     STZ  $07
 80C0  64 16     STZ  $16
 80C2  64 17     STZ  $17
 80C4  A9 00     LDA  #$00
 80C6  85 08     STA  $08
 80C8  A9 02     LDA  #$02
 80CA  85 09     STA  $09
 80CC  64 0A     STZ  $0A
 80CE  64 0B     STZ  $0B
 80D0  20 AA 9A  JSR  $9AAA
 80D3  B5 00     LDA  $00, X
 80D5  D0 05     BNE  $80DC
 80D7  A9 06     LDA  #$06
 80D9  4C 31 D6  JMP  $D631
 80DC  E8        INX  
 80DD  E8        INX  
 80DE  20 83 D5  JSR  $D583
 80E1  E0 78     CPX  #$78
 80E3  F0 05     BEQ  $80EA
 80E5  90 03     BCC  $80EA
 80E7  4C 2F D6  JMP  $D62F
 80EA  A5 16     LDA  $16
 80EC  F0 02     BEQ  $80F0
 80EE  A9 01     LDA  #$01
 80F0  20 61 D6  JSR  $D661
 80F3  80 CF     BRA  $80C4
 80F5  00 08 54 C8 00 00 00 00 00 02 00 00 00 00 00 00  |..T.............|
 8105  84 F0 79 F0 00 00 00 00 0A 00 14 00 00 00 00 03  |..y.............|
 8115  00 00 00 00 00 00 00 04 54 C8 E8 C8 F1 C8 90 C8  |........T.......|
 8125  00 00 00 00 00 00 00 00 00 00 00 00 00 00 00 00  |................|
 8135  01 00 00 00 00 00 00 00 00 00 00 04 00 00 00 00  |................|
 8145  7B 85 7B 85                                      |{.{.            |
 8149  20 01 9D  JSR  $9D01
 814C  A0 81     LDY  #$81
 814E  A9 54     LDA  #$54
 8150  20 BE D4  JSR  $D4BE
 8153  60        RTS  
 8154  B5 04     LDA  $04, X
 8156  15 05     ORA  $05, X
 8158  F0 09     BEQ  $8163
 815A  20 AF A4  JSR  $A4AF
 815D  20 83 89  JSR  $8983
 8160  4C B1 80  JMP  $80B1
 8163  8A        TXA  
 8164  18        CLC  
 8165  69 06     ADC  #$06
 8167  AA        TAX  
 8168  60        RTS  
 8169  20 1B D6  JSR  $D61B
 816C  B5 01     LDA  $01, X
 816E  10 0D     BPL  $817D
 8170  38        SEC  
 8171  A9 00     LDA  #$00
 8173  F5 00     SBC  $00, X
 8175  95 00     STA  $00, X
 8177  A9 00     LDA  #$00
 8179  F5 01     SBC  $01, X
 817B  95 01     STA  $01, X
 817D  60        RTS  
 817E  20 20 D6  JSR  $D620
 8181  B5 00     LDA  $00, X
 8183  15 01     ORA  $01, X
 8185  D0 09     BNE  $8190
 8187  E8        INX  
 8188  E8        INX  
 8189  74 00     STZ  $00, X
 818B  74 01     STZ  $01, X
 818D  4C 5C 82  JMP  $825C
 8190  B5 00     LDA  $00, X
 8192  85 26     STA  $26
 8194  64 27     STZ  $27
 8196  B5 02     LDA  $02, X
 8198  85 24     STA  $24
 819A  B5 03     LDA  $03, X
 819C  85 25     STA  $25
 819E  E8        INX  
 819F  E8        INX  
 81A0  A0 00     LDY  #$00
 81A2  A5 20     LDA  $20
 81A4  29 F7     AND  #$F7
 81A6  1A        INC  
 81A7  09 08     ORA  #$08
 81A9  85 20     STA  $20
 81AB  20 58 93  JSR  $9358
 81AE  C9 0A     CMP  #$0A
 81B0  F0 20     BEQ  $81D2
 81B2  C9 0D     CMP  #$0D
 81B4  F0 1C     BEQ  $81D2
 81B6  C9 08     CMP  #$08
 81B8  F0 22     BEQ  $81DC
 81BA  C9 7F     CMP  #$7F
 81BC  F0 1E     BEQ  $81DC
 81BE  C9 10     CMP  #$10
 81C0  F0 36     BEQ  $81F8
 81C2  C9 0E     CMP  #$0E
 81C4  F0 44     BEQ  $820A
 81C6  91 24     STA  ($24), Y
 81C8  C8        INY  
 81C9  20 16 8E  JSR  $8E16
 81CC  C4 26     CPY  $26
 81CE  D0 DB     BNE  $81AB
 81D0  80 03     BRA  $81D5
 81D2  20 D0 A0  JSR  $A0D0
 81D5  94 00     STY  $00, X
 81D7  74 01     STZ  $01, X
 81D9  4C 5C 82  JMP  $825C
 81DC  C0 00     CPY  #$00
 81DE  D0 06     BNE  $81E6
 81E0  A9 07     LDA  #$07
 81E2  20 16 8E  JSR  $8E16
 81E5  C8        INY  
 81E6  88        DEY  
 81E7  A9 08     LDA  #$08
 81E9  20 16 8E  JSR  $8E16
 81EC  A9 20     LDA  #$20
 81EE  20 16 8E  JSR  $8E16
 81F1  A9 08     LDA  #$08
 81F3  20 16 8E  JSR  $8E16
 81F6  80 B3     BRA  $81AB
 81F8  A5 20     LDA  $20
 81FA  29 07     AND  #$07
 81FC  D0 08     BNE  $8206
 81FE  A5 20     LDA  $20
 8200  09 07     ORA  #$07
 8202  85 20     STA  $20
 8204  80 11     BRA  $8217
 8206  C6 20     DEC  $20
 8208  80 0D     BRA  $8217
 820A  A9 08     LDA  #$08
 820C  24 20     BIT  $20
 820E  D0 07     BNE  $8217
 8210  A5 20     LDA  $20
 8212  29 F7     AND  #$F7
 8214  1A        INC  
 8215  85 20     STA  $20
 8217  A9 08     LDA  #$08
 8219  14 20     TRB  $20
 821B  20 77 82  JSR  $8277
 821E  A9 0D     LDA  #$0D
 8220  20 16 8E  JSR  $8E16
 8223  C0 00     CPY  #$00
 8225  F0 08     BEQ  $822F
 8227  A9 20     LDA  #$20
 8229  20 16 8E  JSR  $8E16
 822C  88        DEY  
 822D  80 F4     BRA  $8223
 822F  A9 0D     LDA  #$0D
 8231  20 16 8E  JSR  $8E16
 8234  B1 28     LDA  ($28), Y
 8236  85 21     STA  $21
 8238  E6 28     INC  $28
 823A  D0 02     BNE  $823E
 823C  E6 29     INC  $29
 823E  A9 0D     LDA  #$0D
 8240  20 16 8E  JSR  $8E16
 8243  C4 21     CPY  $21
 8245  D0 03     BNE  $824A
 8247  4C AB 81  JMP  $81AB
 824A  C4 26     CPY  $26
 824C  F0 0A     BEQ  $8258
 824E  B1 28     LDA  ($28), Y
 8250  91 24     STA  ($24), Y
 8252  20 16 8E  JSR  $8E16
 8255  C8        INY  
 8256  80 EB     BRA  $8243
 8258  88        DEY  
 8259  4C AB 81  JMP  $81AB
 825C  20 77 82  JSR  $8277
 825F  85 21     STA  $21
 8261  A0 00     LDY  #$00
 8263  91 28     STA  ($28), Y
 8265  E6 28     INC  $28
 8267  D0 02     BNE  $826B
 8269  E6 29     INC  $29
 826B  C4 21     CPY  $21
 826D  F0 07     BEQ  $8276
 826F  B1 24     LDA  ($24), Y
 8271  91 28     STA  ($28), Y
 8273  C8        INY  
 8274  80 F5     BRA  $826B
 8276  60        RTS  
 8277  A9 00     LDA  #$00
 8279  85 28     STA  $28
 827B  A9 7C     LDA  #$7C
 827D  85 29     STA  $29
 827F  A5 20     LDA  $20
 8281  6A        ROR  
 8282  29 03     AND  #$03
 8284  18        CLC  
 8285  65 29     ADC  $29
 8287  85 29     STA  $29
 8289  A5 20     LDA  $20
 828B  6A        ROR  
 828C  6A        ROR  
 828D  29 80     AND  #$80
 828F  18        CLC  
 8290  65 28     ADC  $28
 8292  85 28     STA  $28
 8294  90 02     BCC  $8298
 8296  E6 29     INC  $29
 8298  98        TYA  
 8299  C9 80     CMP  #$80
 829B  90 02     BCC  $829F
 829D  A9 7F     LDA  #$7F
 829F  60        RTS  
 82A0  A5 16     LDA  $16
 82A2  05 17     ORA  $17
 82A4  F0 0C     BEQ  $82B2
 82A6  20 BE 85  JSR  $85BE
 82A9  A0 8A     LDY  #$8A
 82AB  A9 FF     LDA  #$FF
 82AD  20 BE D4  JSR  $D4BE
 82B0  80 06     BRA  $82B8
 82B2  20 BD A1  JSR  $A1BD
 82B5  20 FF 8A  JSR  $8AFF
 82B8  60        RTS  
 82B9  20 1B D6  JSR  $D61B
 82BC  A0 00     LDY  #$00
 82BE  A9 4C     LDA  #$4C
 82C0  91 00     STA  ($00), Y
 82C2  C8        INY  
 82C3  B5 00     LDA  $00, X
 82C5  91 00     STA  ($00), Y
 82C7  C8        INY  
 82C8  B5 01     LDA  $01, X
 82CA  91 00     STA  ($00), Y
 82CC  C8        INY  
 82CD  98        TYA  
 82CE  18        CLC  
 82CF  65 00     ADC  $00
 82D1  85 00     STA  $00
 82D3  90 02     BCC  $82D7
 82D5  E6 01     INC  $01
 82D7  E8        INX  
 82D8  E8        INX  
 82D9  60        RTS  
 82DA  60        RTS  
 82DB  20 1B D6  JSR  $D61B
 82DE  B5 01     LDA  $01, X
 82E0  30 22     BMI  $8304
 82E2  18        CLC  
 82E3  A5 00     LDA  $00
 82E5  75 00     ADC  $00, X
 82E7  85 00     STA  $00
 82E9  A5 01     LDA  $01
 82EB  75 01     ADC  $01, X
 82ED  85 01     STA  $01
 82EF  A0 00     LDY  #$00
 82F1  C4 00     CPY  $00
 82F3  A9 7C     LDA  #$7C
 82F5  E5 01     SBC  $01
 82F7  B0 48     BCS  $8341
 82F9  84 00     STY  $00
 82FB  A9 7C     LDA  #$7C
 82FD  85 01     STA  $01
 82FF  A9 00     LDA  #$00
 8301  4C 31 D6  JMP  $D631
 8304  CA        DEX  
 8305  CA        DEX  
 8306  A5 00     LDA  $00
 8308  95 00     STA  $00, X
 830A  A5 01     LDA  $01
 830C  95 01     STA  $01, X
 830E  20 95 99  JSR  $9995
 8311  CA        DEX  
 8312  CA        DEX  
 8313  A9 00     LDA  #$00
 8315  95 00     STA  $00, X
 8317  A9 03     LDA  #$03
 8319  95 01     STA  $01, X
 831B  20 42 D5  JSR  $D542
 831E  F0 17     BEQ  $8337
 8320  30 15     BMI  $8337
 8322  A9 00     LDA  #$00
 8324  85 00     STA  $00
 8326  A9 03     LDA  #$03
 8328  85 01     STA  $01
 832A  A9 54     LDA  #$54
 832C  85 02     STA  $02
 832E  A9 C8     LDA  #$C8
 8330  85 03     STA  $03
 8332  A9 0A     LDA  #$0A
 8334  4C 31 D6  JMP  $D631
 8337  B5 02     LDA  $02, X
 8339  85 00     STA  $00
 833B  B5 03     LDA  $03, X
 833D  85 01     STA  $01
 833F  E8        INX  
 8340  E8        INX  
 8341  E8        INX  
 8342  E8        INX  
 8343  60        RTS  
 8344  20 5D D5  JSR  $D55D
 8347  A0 01     LDY  #$01
 8349  B1 02     LDA  ($02), Y
 834B  29 F5     AND  #$F5
 834D  91 02     STA  ($02), Y
 834F  60        RTS  
 8350  20 54 91  JSR  $9154
 8353  20 45 98  JSR  $9845
 8356  20 5A A1  JSR  $A15A
 8359  20 CF 97  JSR  $97CF
 835C  20 CD 9C  JSR  $9CCD
 835F  60        RTS  
 8360  20 5D D5  JSR  $D55D
 8363  A0 01     LDY  #$01
 8365  B1 02     LDA  ($02), Y
 8367  09 02     ORA  #$02
 8369  29 F7     AND  #$F7
 836B  91 02     STA  ($02), Y
 836D  60        RTS  
 836E  20 20 D6  JSR  $D620
 8371  B5 00     LDA  $00, X
 8373  35 02     AND  $02, X
 8375  95 02     STA  $02, X
 8377  B5 01     LDA  $01, X
 8379  35 03     AND  $03, X
 837B  95 03     STA  $03, X
 837D  E8        INX  
 837E  E8        INX  
 837F  60        RTS  
 8380  20 20 D6  JSR  $D620
 8383  A9 1B     LDA  #$1B
 8385  20 16 8E  JSR  $8E16
 8388  A9 5B     LDA  #$5B
 838A  20 16 8E  JSR  $8E16
 838D  20 67 D6  JSR  $D667
 8390  A9 3B     LDA  #$3B
 8392  20 16 8E  JSR  $8E16
 8395  20 67 D6  JSR  $D667
 8398  A9 48     LDA  #$48
 839A  20 16 8E  JSR  $8E16
 839D  60        RTS  
 839E  A5 0A     LDA  $0A
 83A0  85 0C     STA  $0C
 83A2  A5 0B     LDA  $0B
 83A4  85 0D     STA  $0D
 83A6  60        RTS  
 83A7  CA        DEX  
 83A8  CA        DEX  
 83A9  A9 18     LDA  #$18
 83AB  95 00     STA  $00, X
 83AD  74 01     STZ  $01, X
 83AF  60        RTS  
 83B0  20 92 91  JSR  $9192
 83B3  60        RTS  
 83B4  A9 07     LDA  #$07
 83B6  20 16 8E  JSR  $8E16
 83B9  60        RTS  
 83BA  CA        DEX  
 83BB  CA        DEX  
 83BC  A9 20     LDA  #$20
 83BE  95 00     STA  $00, X
 83C0  74 01     STZ  $01, X
 83C2  60        RTS  
 83C3  CA        DEX  
 83C4  CA        DEX  
 83C5  18        CLC  
 83C6  A5 1E     LDA  $1E
 83C8  69 00     ADC  #$00
 83CA  95 00     STA  $00, X
 83CC  A5 1F     LDA  $1F
 83CE  69 00     ADC  #$00
 83D0  95 01     STA  $01, X
 83D2  60        RTS  
 83D3  CA        DEX  
 83D4  CA        DEX  
 83D5  A0 28     LDY  #$28
 83D7  B1 1E     LDA  ($1E), Y
 83D9  95 00     STA  $00, X
 83DB  C8        INY  
 83DC  B1 1E     LDA  ($1E), Y
 83DE  95 01     STA  $01, X
 83E0  60        RTS  
 83E1  A0 2A     LDY  #$2A
 83E3  B1 1E     LDA  ($1E), Y
 83E5  D5 00     CMP  $00, X
 83E7  D0 0F     BNE  $83F8
 83E9  C8        INY  
 83EA  B1 1E     LDA  ($1E), Y
 83EC  D5 01     CMP  $01, X
 83EE  D0 08     BNE  $83F8
 83F0  A0 2C     LDY  #$2C
 83F2  B1 1E     LDA  ($1E), Y
 83F4  29 01     AND  #$01
 83F6  D0 30     BNE  $8428
 83F8  A0 2C     LDY  #$2C
 83FA  B1 1E     LDA  ($1E), Y
 83FC  C9 03     CMP  #$03
 83FE  D0 0C     BNE  $840C
 8400  20 D3 83  JSR  $83D3
 8403  20 C5 85  JSR  $85C5
 8406  20 A0 8F  JSR  $8FA0
 8409  20 80 85  JSR  $8580
 840C  A0 2A     LDY  #$2A
 840E  B5 00     LDA  $00, X
 8410  91 1E     STA  ($1E), Y
 8412  C8        INY  
 8413  B5 01     LDA  $01, X
 8415  91 1E     STA  ($1E), Y
 8417  20 D3 83  JSR  $83D3
 841A  20 5A A1  JSR  $A15A
 841D  20 5D 85  JSR  $855D
 8420  A9 01     LDA  #$01
 8422  A0 2C     LDY  #$2C
 8424  91 1E     STA  ($1E), Y
 8426  CA        DEX  
 8427  CA        DEX  
 8428  A0 28     LDY  #$28
 842A  B1 1E     LDA  ($1E), Y
 842C  95 00     STA  $00, X
 842E  C8        INY  
 842F  B1 1E     LDA  ($1E), Y
 8431  95 01     STA  $01, X
 8433  60        RTS  
 8434  20 1B D6  JSR  $D61B
 8437  4C 52 85  JMP  $8552
 843A  62 61 73 65 20 40 20 73 77 61 70 20 64 65 63 69  |base @ swap deci|
 844A  6D 61 6C 20 31 30 32 34 20 2A 20 64 75 70 20 62  |mal 1024 * dup b|
 845A  75 66 66 65 72 3A 20 72 61 6D 64 72 69 76 65 20  |uffer: ramdrive |
 846A  3A 20 62 6C 6F 63 6B 2D 72 65 61 64 2D 72 61 6D  |: block-read-ram|
 847A  64 72 69 76 65 20 72 61 6D 64 72 69 76 65 20 73  |drive ramdrive s|
 848A  77 61 70 20 31 30 32 34 20 2A 20 2B 20 73 77 61  |wap 1024 * + swa|
 849A  70 20 31 30 32 34 20 6D 6F 76 65 20 3B 20 3A 20  |p 1024 move ; : |
 84AA  62 6C 6F 63 6B 2D 77 72 69 74 65 2D 72 61 6D 64  |block-write-ramd|
 84BA  72 69 76 65 20 72 61 6D 64 72 69 76 65 20 73 77  |rive ramdrive sw|
 84CA  61 70 20 31 30 32 34 20 2A 20 2B 20 31 30 32 34  |ap 1024 * + 1024|
 84DA  20 6D 6F 76 65 20 3B 20 27 20 62 6C 6F 63 6B 2D  | move ; ' block-|
 84EA  72 65 61 64 2D 72 61 6D 64 72 69 76 65 20 62 6C  |read-ramdrive bl|
 84FA  6F 63 6B 2D 72 65 61 64 2D 76 65 63 74 6F 72 20  |ock-read-vector |
 850A  21 20 27 20 62 6C 6F 63 6B 2D 77 72 69 74 65 2D  |! ' block-write-|
 851A  72 61 6D 64 72 69 76 65 20 62 6C 6F 63 6B 2D 77  |ramdrive block-w|
 852A  72 69 74 65 2D 76 65 63 74 6F 72 20 21 20 72 61  |rite-vector ! ra|
 853A  6D 64 72 69 76 65 20 73 77 61 70 20 62 6C 61 6E  |mdrive swap blan|
 854A  6B 20 62 61 73 65 20 21                          |k base !        |
 8552  20 5B A0  JSR  $A05B
 8555  3A 84 18 01                                      |:...            |
 8559  20 F5 90  JSR  $90F5
 855C  60        RTS  
 855D  A0 2E     LDY  #$2E
 855F  B1 1E     LDA  ($1E), Y
 8561  85 24     STA  $24
 8563  C8        INY  
 8564  B1 1E     LDA  ($1E), Y
 8566  85 25     STA  $25
 8568  6C 24 00  JMP  ($0024)
 856B  CA        DEX  
 856C  CA        DEX  
 856D  18        CLC  
 856E  A5 1E     LDA  $1E
 8570  69 2E     ADC  #$2E
 8572  95 00     STA  $00, X
 8574  A5 1F     LDA  $1F
 8576  69 00     ADC  #$00
 8578  95 01     STA  $01, X
 857A  60        RTS  
 857B  A9 0C     LDA  #$0C
 857D  4C 31 D6  JMP  $D631
 8580  A0 30     LDY  #$30
 8582  B1 1E     LDA  ($1E), Y
 8584  85 24     STA  $24
 8586  C8        INY  
 8587  B1 1E     LDA  ($1E), Y
 8589  85 25     STA  $25
 858B  6C 24 00  JMP  ($0024)
 858E  CA        DEX  
 858F  CA        DEX  
 8590  18        CLC  
 8591  A5 1E     LDA  $1E
 8593  69 30     ADC  #$30
 8595  95 00     STA  $00, X
 8597  A5 1F     LDA  $1F
 8599  69 00     ADC  #$00
 859B  95 01     STA  $01, X
 859D  60        RTS  
 859E  20 20 D6  JSR  $D620
 85A1  18        CLC  
 85A2  B5 00     LDA  $00, X
 85A4  B4 02     LDY  $02, X
 85A6  75 02     ADC  $02, X
 85A8  95 02     STA  $02, X
 85AA  94 00     STY  $00, X
 85AC  B5 01     LDA  $01, X
 85AE  B4 03     LDY  $03, X
 85B0  75 03     ADC  $03, X
 85B2  95 03     STA  $03, X
 85B4  94 01     STY  $01, X
 85B6  60        RTS  
 85B7  20 51 86  JSR  $8651
 85BA  20 AA 93  JSR  $93AA
 85BD  60        RTS  
 85BE  20 BD A1  JSR  $A1BD
 85C1  20 AA 93  JSR  $93AA
 85C4  60        RTS  
 85C5  CA        DEX  
 85C6  CA        DEX  
 85C7  18        CLC  
 85C8  A5 1E     LDA  $1E
 85CA  69 2A     ADC  #$2A
 85CC  95 00     STA  $00, X
 85CE  A5 1F     LDA  $1F
 85D0  69 00     ADC  #$00
 85D2  95 01     STA  $01, X
 85D4  60        RTS  
 85D5  A0 2C     LDY  #$2C
 85D7  B1 1E     LDA  ($1E), Y
 85D9  C9 03     CMP  #$03
 85DB  D0 0C     BNE  $85E9
 85DD  20 D3 83  JSR  $83D3
 85E0  20 C5 85  JSR  $85C5
 85E3  20 A0 8F  JSR  $8FA0
 85E6  20 80 85  JSR  $8580
 85E9  A0 2A     LDY  #$2A
 85EB  B5 00     LDA  $00, X
 85ED  91 1E     STA  ($1E), Y
 85EF  C8        INY  
 85F0  B5 01     LDA  $01, X
 85F2  91 1E     STA  ($1E), Y
 85F4  A9 01     LDA  #$01
 85F6  A0 2C     LDY  #$2C
 85F8  91 1E     STA  ($1E), Y
 85FA  A0 28     LDY  #$28
 85FC  B1 1E     LDA  ($1E), Y
 85FE  95 00     STA  $00, X
 8600  C8        INY  
 8601  B1 1E     LDA  ($1E), Y
 8603  95 01     STA  $01, X
 8605  60        RTS  
 8606  20 89 89  JSR  $8989
 8609  20 DB 82  JSR  $82DB
 860C  60        RTS  
 860D  CA        DEX  
 860E  CA        DEX  
 860F  18        CLC  
 8610  A5 1E     LDA  $1E
 8612  69 2C     ADC  #$2C
 8614  95 00     STA  $00, X
 8616  A5 1F     LDA  $1F
 8618  69 00     ADC  #$00
 861A  95 01     STA  $01, X
 861C  60        RTS  
 861D  4C 00 F0  JMP  $F000
 8620  20 1B D6  JSR  $D61B
 8623  B5 00     LDA  $00, X
 8625  20 CE D4  JSR  $D4CE
 8628  E8        INX  
 8629  E8        INX  
 862A  60        RTS  
 862B  20 1B D6  JSR  $D61B
 862E  A1 00     LDA  ($00, X)
 8630  95 00     STA  $00, X
 8632  74 01     STZ  $01, X
 8634  60        RTS  
 8635  20 20 D6  JSR  $D620
 8638  B5 02     LDA  $02, X
 863A  81 00     STA  ($00, X)
 863C  E8        INX  
 863D  E8        INX  
 863E  E8        INX  
 863F  E8        INX  
 8640  60        RTS  
 8641  20 1B D6  JSR  $D61B
 8644  F6 00     INC  $00, X
 8646  D0 02     BNE  $864A
 8648  F6 01     INC  $01, X
 864A  F6 00     INC  $00, X
 864C  D0 02     BNE  $8650
 864E  F6 01     INC  $01, X
 8650  60        RTS  
 8651  20 91 98  JSR  $9891
 8654  B5 00     LDA  $00, X
 8656  15 01     ORA  $01, X
 8658  D0 05     BNE  $865F
 865A  A9 05     LDA  #$05
 865C  4C 31 D6  JMP  $D631
 865F  E8        INX  
 8660  E8        INX  
 8661  A1 00     LDA  ($00, X)
 8663  95 00     STA  $00, X
 8665  74 01     STZ  $01, X
 8667  60        RTS  
 8668  20 1B D6  JSR  $D61B
 866B  60        RTS  
 866C  20 20 D6  JSR  $D620
 866F  20 83 95  JSR  $9583
 8672  20 82 92  JSR  $9282
 8675  B5 00     LDA  $00, X
 8677  85 0A     STA  $0A
 8679  B5 01     LDA  $01, X
 867B  85 0B     STA  $0B
 867D  B5 02     LDA  $02, X
 867F  85 08     STA  $08
 8681  B5 03     LDA  $03, X
 8683  85 09     STA  $09
 8685  64 0C     STZ  $0C
 8687  64 0D     STZ  $0D
 8689  20 91 98  JSR  $9891
 868C  B5 00     LDA  $00, X
 868E  15 01     ORA  $01, X
 8690  F0 23     BEQ  $86B5
 8692  B5 04     LDA  $04, X
 8694  38        SEC  
 8695  F5 00     SBC  $00, X
 8697  95 04     STA  $04, X
 8699  B5 05     LDA  $05, X
 869B  F5 01     SBC  $01, X
 869D  95 05     STA  $05, X
 869F  B5 06     LDA  $06, X
 86A1  18        CLC  
 86A2  75 00     ADC  $00, X
 86A4  95 06     STA  $06, X
 86A6  B5 07     LDA  $07, X
 86A8  75 01     ADC  $01, X
 86AA  95 07     STA  $07, X
 86AC  20 2A A4  JSR  $A42A
 86AF  20 83 95  JSR  $9583
 86B2  20 2A A4  JSR  $A42A
 86B5  20 55 9A  JSR  $9A55
 86B8  60        RTS  
 86B9  20 25 D6  JSR  $D625
 86BC  B5 02     LDA  $02, X
 86BE  85 26     STA  $26
 86C0  B5 03     LDA  $03, X
 86C2  85 27     STA  $27
 86C4  B5 04     LDA  $04, X
 86C6  85 24     STA  $24
 86C8  B5 05     LDA  $05, X
 86CA  85 25     STA  $25
 86CC  A0 00     LDY  #$00
 86CE  B5 01     LDA  $01, X
 86D0  F0 0F     BEQ  $86E1
 86D2  B1 24     LDA  ($24), Y
 86D4  91 26     STA  ($26), Y
 86D6  C8        INY  
 86D7  D0 F9     BNE  $86D2
 86D9  E6 25     INC  $25
 86DB  E6 27     INC  $27
 86DD  D6 01     DEC  $01, X
 86DF  D0 F1     BNE  $86D2
 86E1  B5 00     LDA  $00, X
 86E3  F0 09     BEQ  $86EE
 86E5  B1 24     LDA  ($24), Y
 86E7  91 26     STA  ($26), Y
 86E9  C8        INY  
 86EA  D6 00     DEC  $00, X
 86EC  D0 F7     BNE  $86E5
 86EE  8A        TXA  
 86EF  18        CLC  
 86F0  69 06     ADC  #$06
 86F2  AA        TAX  
 86F3  60        RTS  
 86F4  20 25 D6  JSR  $D625
 86F7  B5 02     LDA  $02, X
 86F9  85 26     STA  $26
 86FB  B5 03     LDA  $03, X
 86FD  18        CLC  
 86FE  75 01     ADC  $01, X
 8700  85 27     STA  $27
 8702  B5 04     LDA  $04, X
 8704  85 24     STA  $24
 8706  B5 05     LDA  $05, X
 8708  18        CLC  
 8709  75 01     ADC  $01, X
 870B  85 25     STA  $25
 870D  F6 01     INC  $01, X
 870F  B4 00     LDY  $00, X
 8711  F0 0E     BEQ  $8721
 8713  88        DEY  
 8714  F0 07     BEQ  $871D
 8716  B1 24     LDA  ($24), Y
 8718  91 26     STA  ($26), Y
 871A  88        DEY  
 871B  D0 F9     BNE  $8716
 871D  B2 24     LDA  ($24)
 871F  92 26     STA  ($26)
 8721  C6 25     DEC  $25
 8723  C6 27     DEC  $27
 8725  D6 01     DEC  $01, X
 8727  D0 EA     BNE  $8713
 8729  8A        TXA  
 872A  18        CLC  
 872B  69 06     ADC  #$06
 872D  AA        TAX  
 872E  60        RTS  
 872F  A5 16     LDA  $16
 8731  05 17     ORA  $17
 8733  F0 05     BEQ  $873A
 8735  A9 07     LDA  #$07
 8737  4C 31 D6  JMP  $D631
 873A  C6 16     DEC  $16
 873C  C6 17     DEC  $17
 873E  A9 40     LDA  #$40
 8740  04 20     TSB  $20
 8742  20 5D D5  JSR  $D55D
 8745  A5 03     LDA  $03
 8747  48        PHA  
 8748  A5 02     LDA  $02
 874A  48        PHA  
 874B  A9 80     LDA  #$80
 874D  04 20     TSB  $20
 874F  20 89 89  JSR  $8989
 8752  20 5D D5  JSR  $D55D
 8755  A5 02     LDA  $02
 8757  85 04     STA  $04
 8759  A5 03     LDA  $03
 875B  85 05     STA  $05
 875D  68        PLA  
 875E  85 02     STA  $02
 8760  68        PLA  
 8761  85 03     STA  $03
 8763  20 70 D5  JSR  $D570
 8766  A5 00     LDA  $00
 8768  38        SEC  
 8769  E9 03     SBC  #$03
 876B  85 00     STA  $00
 876D  B0 02     BCS  $8771
 876F  C6 01     DEC  $01
 8771  60        RTS  
 8772  A5 16     LDA  $16
 8774  05 17     ORA  $17
 8776  F0 05     BEQ  $877D
 8778  A9 07     LDA  #$07
 877A  4C 31 D6  JMP  $D631
 877D  C6 16     DEC  $16
 877F  C6 17     DEC  $17
 8781  A9 40     LDA  #$40
 8783  14 20     TRB  $20
 8785  A5 00     LDA  $00
 8787  85 04     STA  $04
 8789  A5 01     LDA  $01
 878B  85 05     STA  $05
 878D  60        RTS  
 878E  20 1B D6  JSR  $D61B
 8791  B5 00     LDA  $00, X
 8793  92 00     STA  ($00)
 8795  E6 00     INC  $00
 8797  D0 02     BNE  $879B
 8799  E6 01     INC  $01
 879B  B5 01     LDA  $01, X
 879D  92 00     STA  ($00)
 879F  E6 00     INC  $00
 87A1  D0 02     BNE  $87A5
 87A3  E6 01     INC  $01
 87A5  E8        INX  
 87A6  E8        INX  
 87A7  60        RTS  
 87A8  20 2A D6  JSR  $D62A
 87AB  B5 02     LDA  $02, X
 87AD  85 26     STA  $26
 87AF  B5 03     LDA  $03, X
 87B1  85 27     STA  $27
 87B3  B5 06     LDA  $06, X
 87B5  85 24     STA  $24
 87B7  B5 07     LDA  $07, X
 87B9  85 25     STA  $25
 87BB  B5 04     LDA  $04, X
 87BD  15 05     ORA  $05, X
 87BF  F0 2C     BEQ  $87ED
 87C1  B5 00     LDA  $00, X
 87C3  15 01     ORA  $01, X
 87C5  F0 3A     BEQ  $8801
 87C7  B2 24     LDA  ($24)
 87C9  D2 26     CMP  ($26)
 87CB  90 26     BCC  $87F3
 87CD  D0 32     BNE  $8801
 87CF  E6 24     INC  $24
 87D1  D0 02     BNE  $87D5
 87D3  E6 25     INC  $25
 87D5  E6 26     INC  $26
 87D7  D0 02     BNE  $87DB
 87D9  E6 27     INC  $27
 87DB  B5 04     LDA  $04, X
 87DD  D0 02     BNE  $87E1
 87DF  D6 05     DEC  $05, X
 87E1  D6 04     DEC  $04, X
 87E3  B5 00     LDA  $00, X
 87E5  D0 02     BNE  $87E9
 87E7  D6 01     DEC  $01, X
 87E9  D6 00     DEC  $00, X
 87EB  80 CE     BRA  $87BB
 87ED  B5 00     LDA  $00, X
 87EF  15 01     ORA  $01, X
 87F1  F0 08     BEQ  $87FB
 87F3  A9 FF     LDA  #$FF
 87F5  95 06     STA  $06, X
 87F7  95 07     STA  $07, X
 87F9  80 0C     BRA  $8807
 87FB  74 06     STZ  $06, X
 87FD  74 07     STZ  $07, X
 87FF  80 06     BRA  $8807
 8801  A9 01     LDA  #$01
 8803  95 06     STA  $06, X
 8805  74 07     STZ  $07, X
 8807  8A        TXA  
 8808  18        CLC  
 8809  69 06     ADC  #$06
 880B  AA        TAX  
 880C  60        RTS  
 880D  20 1B D6  JSR  $D61B
 8810  B5 01     LDA  $01, X
 8812  48        PHA  
 8813  B5 00     LDA  $00, X
 8815  48        PHA  
 8816  20 98 92  JSR  $9298
 8819  B5 00     LDA  $00, X
 881B  15 01     ORA  $01, X
 881D  D0 03     BNE  $8822
 881F  4C 0A 89  JMP  $890A
 8822  B5 00     LDA  $00, X
 8824  85 2C     STA  $2C
 8826  B5 01     LDA  $01, X
 8828  85 2D     STA  $2D
 882A  F6 00     INC  $00, X
 882C  D0 02     BNE  $8830
 882E  F6 01     INC  $01, X
 8830  A1 00     LDA  ($00, X)
 8832  85 28     STA  $28
 8834  29 02     AND  #$02
 8836  F0 0D     BEQ  $8845
 8838  A5 2C     LDA  $2C
 883A  95 00     STA  $00, X
 883C  A5 2D     LDA  $2D
 883E  95 01     STA  $01, X
 8840  20 20 A7  JSR  $A720
 8843  80 27     BRA  $886C
 8845  A5 28     LDA  $28
 8847  29 08     AND  #$08
 8849  F0 03     BEQ  $884E
 884B  4C 0A 89  JMP  $890A
 884E  A5 2C     LDA  $2C
 8850  95 00     STA  $00, X
 8852  A5 2D     LDA  $2D
 8854  95 01     STA  $01, X
 8856  20 20 A7  JSR  $A720
 8859  B5 01     LDA  $01, X
 885B  C5 1B     CMP  $1B
 885D  90 0D     BCC  $886C
 885F  D0 08     BNE  $8869
 8861  B5 00     LDA  $00, X
 8863  C5 1A     CMP  $1A
 8865  90 05     BCC  $886C
 8867  F0 03     BEQ  $886C
 8869  4C 0A 89  JMP  $890A
 886C  CA        DEX  
 886D  CA        DEX  
 886E  CA        DEX  
 886F  CA        DEX  
 8870  B5 04     LDA  $04, X
 8872  95 00     STA  $00, X
 8874  B5 05     LDA  $05, X
 8876  95 01     STA  $01, X
 8878  68        PLA  
 8879  95 04     STA  $04, X
 887B  68        PLA  
 887C  95 05     STA  $05, X
 887E  A5 00     LDA  $00
 8880  95 02     STA  $02, X
 8882  A5 01     LDA  $01
 8884  95 03     STA  $03, X
 8886  A0 00     LDY  #$00
 8888  B9 F8 88  LDA  $88F8, Y
 888B  D5 04     CMP  $04, X
 888D  D0 07     BNE  $8896
 888F  B9 F9 88  LDA  $88F9, Y
 8892  D5 05     CMP  $05, X
 8894  F0 0C     BEQ  $88A2
 8896  B9 F8 88  LDA  $88F8, Y
 8899  19 F9 88  ORA  $88F9, Y
 889C  F0 22     BEQ  $88C0
 889E  C8        INY  
 889F  C8        INY  
 88A0  80 E6     BRA  $8888
 88A2  98        TYA  
 88A3  4A        LSR  
 88A4  A8        TAY  
 88A5  B9 04 89  LDA  $8904, Y
 88A8  85 2C     STA  $2C
 88AA  18        CLC  
 88AB  75 04     ADC  $04, X
 88AD  95 04     STA  $04, X
 88AF  90 02     BCC  $88B3
 88B1  F6 05     INC  $05, X
 88B3  06 2C     ASL  $2C
 88B5  38        SEC  
 88B6  B5 00     LDA  $00, X
 88B8  E5 2C     SBC  $2C
 88BA  95 00     STA  $00, X
 88BC  B0 02     BCS  $88C0
 88BE  D6 01     DEC  $01, X
 88C0  A5 1C     LDA  $1C
 88C2  05 1D     ORA  $1D
 88C4  F0 1C     BEQ  $88E2
 88C6  A5 28     LDA  $28
 88C8  29 10     AND  #$10
 88CA  F0 16     BEQ  $88E2
 88CC  18        CLC  
 88CD  B5 04     LDA  $04, X
 88CF  69 03     ADC  #$03
 88D1  95 04     STA  $04, X
 88D3  90 02     BCC  $88D7
 88D5  F6 05     INC  $05, X
 88D7  38        SEC  
 88D8  B5 00     LDA  $00, X
 88DA  E9 03     SBC  #$03
 88DC  95 00     STA  $00, X
 88DE  B0 02     BCS  $88E2
 88E0  D6 01     DEC  $01, X
 88E2  B5 01     LDA  $01, X
 88E4  48        PHA  
 88E5  B5 00     LDA  $00, X
 88E7  48        PHA  
 88E8  20 E2 95  JSR  $95E2
 88EB  18        CLC  
 88EC  68        PLA  
 88ED  65 00     ADC  $00
 88EF  85 00     STA  $00
 88F1  68        PLA  
 88F2  65 01     ADC  $01
 88F4  85 01     STA  $01
 88F6  80 2C     BRA  $8924
 88F8  44 9A 2F 9A 1C A3 4E A4 D4 A3 00 00 04 04 04 06  |D./...N.........|
 8908  06 00                                            |..              |
 890A  A9 20     LDA  #$20
 890C  92 00     STA  ($00)
 890E  A0 01     LDY  #$01
 8910  68        PLA  
 8911  91 00     STA  ($00), Y
 8913  C8        INY  
 8914  68        PLA  
 8915  91 00     STA  ($00), Y
 8917  A9 03     LDA  #$03
 8919  18        CLC  
 891A  65 00     ADC  $00
 891C  85 00     STA  $00
 891E  90 02     BCC  $8922
 8920  E6 01     INC  $01
 8922  E8        INX  
 8923  E8        INX  
 8924  60        RTS  
 8925  20 5D D5  JSR  $D55D
 8928  A0 01     LDY  #$01
 892A  B1 02     LDA  ($02), Y
 892C  09 01     ORA  #$01
 892E  91 02     STA  ($02), Y
 8930  60        RTS  
 8931  20 1B D6  JSR  $D61B
 8934  20 89 89  JSR  $8989
 8937  38        SEC  
 8938  A5 00     LDA  $00
 893A  E9 02     SBC  #$02
 893C  85 24     STA  $24
 893E  A5 01     LDA  $01
 8940  E9 00     SBC  #$00
 8942  85 25     STA  $25
 8944  A9 D7     LDA  #$D7
 8946  92 24     STA  ($24)
 8948  A0 01     LDY  #$01
 894A  A9 D4     LDA  #$D4
 894C  91 24     STA  ($24), Y
 894E  20 8E 87  JSR  $878E
 8951  20 5B 93  JSR  $935B
 8954  B5 00     LDA  $00, X
 8956  85 24     STA  $24
 8958  B5 01     LDA  $01, X
 895A  85 25     STA  $25
 895C  A0 06     LDY  #$06
 895E  B1 24     LDA  ($24), Y
 8960  18        CLC  
 8961  69 02     ADC  #$02
 8963  91 24     STA  ($24), Y
 8965  C8        INY  
 8966  B1 24     LDA  ($24), Y
 8968  69 00     ADC  #$00
 896A  91 24     STA  ($24), Y
 896C  E8        INX  
 896D  E8        INX  
 896E  60        RTS  
 896F  20 1B D6  JSR  $D61B
 8972  A1 00     LDA  ($00, X)
 8974  A8        TAY  
 8975  F6 00     INC  $00, X
 8977  D0 02     BNE  $897B
 8979  F6 01     INC  $01, X
 897B  98        TYA  
 897C  CA        DEX  
 897D  CA        DEX  
 897E  95 00     STA  $00, X
 8980  74 01     STZ  $01, X
 8982  60        RTS  
 8983  A9 0A     LDA  #$0A
 8985  20 16 8E  JSR  $8E16
 8988  60        RTS  
 8989  20 91 98  JSR  $9891
 898C  B5 00     LDA  $00, X
 898E  15 01     ORA  $01, X
 8990  D0 05     BNE  $8997
 8992  A9 05     LDA  #$05
 8994  4C 31 D6  JMP  $D631
 8997  74 01     STZ  $01, X
 8999  20 64 A3  JSR  $A364
 899C  20 FB 8F  JSR  $8FFB
 899F  B5 00     LDA  $00, X
 89A1  15 01     ORA  $01, X
 89A3  F0 1E     BEQ  $89C3
 89A5  E8        INX  
 89A6  E8        INX  
 89A7  24 20     BIT  $20
 89A9  10 08     BPL  $89B3
 89AB  A9 80     LDA  #$80
 89AD  05 20     ORA  $20
 89AF  85 20     STA  $20
 89B1  80 18     BRA  $89CB
 89B3  A9 02     LDA  #$02
 89B5  20 47 D6  JSR  $D647
 89B8  20 64 A3  JSR  $A364
 89BB  20 AF A4  JSR  $A4AF
 89BE  20 D0 A0  JSR  $A0D0
 89C1  80 08     BRA  $89CB
 89C3  E8        INX  
 89C4  E8        INX  
 89C5  A9 7F     LDA  #$7F
 89C7  25 20     AND  $20
 89C9  85 20     STA  $20
 89CB  B5 00     LDA  $00, X
 89CD  85 26     STA  $26
 89CF  A5 00     LDA  $00
 89D1  85 24     STA  $24
 89D3  A5 01     LDA  $01
 89D5  85 25     STA  $25
 89D7  B5 00     LDA  $00, X
 89D9  18        CLC  
 89DA  69 08     ADC  #$08
 89DC  85 28     STA  $28
 89DE  18        CLC  
 89DF  69 03     ADC  #$03
 89E1  95 00     STA  $00, X
 89E3  74 01     STZ  $01, X
 89E5  20 DB 82  JSR  $82DB
 89E8  20 5D D5  JSR  $D55D
 89EB  A0 00     LDY  #$00
 89ED  A5 26     LDA  $26
 89EF  91 24     STA  ($24), Y
 89F1  A9 08     LDA  #$08
 89F3  09 20     ORA  #$20
 89F5  C8        INY  
 89F6  91 24     STA  ($24), Y
 89F8  C8        INY  
 89F9  A5 02     LDA  $02
 89FB  91 24     STA  ($24), Y
 89FD  C8        INY  
 89FE  A5 03     LDA  $03
 8A00  91 24     STA  ($24), Y
 8A02  C8        INY  
 8A03  A5 25     LDA  $25
 8A05  85 03     STA  $03
 8A07  A5 24     LDA  $24
 8A09  85 02     STA  $02
 8A0B  18        CLC  
 8A0C  65 28     ADC  $28
 8A0E  91 24     STA  ($24), Y
 8A10  48        PHA  
 8A11  C8        INY  
 8A12  A5 25     LDA  $25
 8A14  69 00     ADC  #$00
 8A16  91 24     STA  ($24), Y
 8A18  C8        INY  
 8A19  68        PLA  
 8A1A  18        CLC  
 8A1B  69 03     ADC  #$03
 8A1D  91 24     STA  ($24), Y
 8A1F  88        DEY  
 8A20  B1 24     LDA  ($24), Y
 8A22  69 00     ADC  #$00
 8A24  C8        INY  
 8A25  C8        INY  
 8A26  91 24     STA  ($24), Y
 8A28  C8        INY  
 8A29  B5 00     LDA  $00, X
 8A2B  38        SEC  
 8A2C  E9 08     SBC  #$08
 8A2E  85 2C     STA  $2C
 8A30  B5 01     LDA  $01, X
 8A32  E9 00     SBC  #$00
 8A34  85 2D     STA  $2D
 8A36  B1 2C     LDA  ($2C), Y
 8A38  C9 5B     CMP  #$5B
 8A3A  B0 07     BCS  $8A43
 8A3C  C9 41     CMP  #$41
 8A3E  90 03     BCC  $8A43
 8A40  18        CLC  
 8A41  69 20     ADC  #$20
 8A43  91 24     STA  ($24), Y
 8A45  C8        INY  
 8A46  C6 26     DEC  $26
 8A48  D0 EC     BNE  $8A36
 8A4A  A9 20     LDA  #$20
 8A4C  91 24     STA  ($24), Y
 8A4E  C8        INY  
 8A4F  A9 1D     LDA  #$1D
 8A51  91 24     STA  ($24), Y
 8A53  C8        INY  
 8A54  A9 D5     LDA  #$D5
 8A56  91 24     STA  ($24), Y
 8A58  20 70 D5  JSR  $D570
 8A5B  E8        INX  
 8A5C  E8        INX  
 8A5D  60        RTS  
 8A5E  20 2A D6  JSR  $D62A
 8A61  38        SEC  
 8A62  B5 06     LDA  $06, X
 8A64  F5 02     SBC  $02, X
 8A66  95 06     STA  $06, X
 8A68  B5 07     LDA  $07, X
 8A6A  F5 03     SBC  $03, X
 8A6C  95 07     STA  $07, X
 8A6E  B5 04     LDA  $04, X
 8A70  F5 00     SBC  $00, X
 8A72  95 04     STA  $04, X
 8A74  B5 05     LDA  $05, X
 8A76  F5 01     SBC  $01, X
 8A78  95 05     STA  $05, X
 8A7A  E8        INX  
 8A7B  E8        INX  
 8A7C  E8        INX  
 8A7D  E8        INX  
 8A7E  60        RTS  
 8A7F  20 2A D6  JSR  $D62A
 8A82  18        CLC  
 8A83  B5 02     LDA  $02, X
 8A85  75 06     ADC  $06, X
 8A87  95 06     STA  $06, X
 8A89  B5 03     LDA  $03, X
 8A8B  75 07     ADC  $07, X
 8A8D  95 07     STA  $07, X
 8A8F  B5 00     LDA  $00, X
 8A91  75 04     ADC  $04, X
 8A93  95 04     STA  $04, X
 8A95  B5 01     LDA  $01, X
 8A97  75 05     ADC  $05, X
 8A99  95 05     STA  $05, X
 8A9B  E8        INX  
 8A9C  E8        INX  
 8A9D  E8        INX  
 8A9E  E8        INX  
 8A9F  60        RTS  
 8AA0  20 20 D6  JSR  $D620
 8AA3  E8        INX  
 8AA4  E8        INX  
 8AA5  60        RTS  
 8AA6  20 20 D6  JSR  $D620
 8AA9  B5 01     LDA  $01, X
 8AAB  10 17     BPL  $8AC4
 8AAD  A0 00     LDY  #$00
 8AAF  38        SEC  
 8AB0  98        TYA  
 8AB1  F5 02     SBC  $02, X
 8AB3  95 02     STA  $02, X
 8AB5  98        TYA  
 8AB6  F5 03     SBC  $03, X
 8AB8  95 03     STA  $03, X
 8ABA  98        TYA  
 8ABB  F5 00     SBC  $00, X
 8ABD  95 00     STA  $00, X
 8ABF  98        TYA  
 8AC0  F5 01     SBC  $01, X
 8AC2  95 01     STA  $01, X
 8AC4  60        RTS  
 8AC5  A9 0A     LDA  #$0A
 8AC7  85 18     STA  $18
 8AC9  64 19     STZ  $19
 8ACB  60        RTS  
 8ACC  20 89 89  JSR  $8989
 8ACF  A5 00     LDA  $00
 8AD1  38        SEC  
 8AD2  E9 02     SBC  #$02
 8AD4  85 24     STA  $24
 8AD6  A5 01     LDA  $01
 8AD8  E9 00     SBC  #$00
 8ADA  85 25     STA  $25
 8ADC  A0 00     LDY  #$00
 8ADE  A9 EB     LDA  #$EB
 8AE0  91 24     STA  ($24), Y
 8AE2  C8        INY  
 8AE3  A9 D4     LDA  #$D4
 8AE5  91 24     STA  ($24), Y
 8AE7  A9 FF     LDA  #$FF
 8AE9  92 00     STA  ($00)
 8AEB  E6 00     INC  $00
 8AED  D0 02     BNE  $8AF1
 8AEF  E6 01     INC  $01
 8AF1  A9 D4     LDA  #$D4
 8AF3  92 00     STA  ($00)
 8AF5  E6 00     INC  $00
 8AF7  D0 02     BNE  $8AFB
 8AF9  E6 01     INC  $01
 8AFB  20 51 89  JSR  $8951
 8AFE  60        RTS  
 8AFF  20 39 A2  JSR  $A239
 8B02  20 A0 8F  JSR  $8FA0
 8B05  60        RTS  
 8B06  20 39 A2  JSR  $A239
 8B09  20 39 A1  JSR  $A139
 8B0C  60        RTS  
 8B0D  A0 1F     LDY  #$1F
 8B0F  B1 1E     LDA  ($1E), Y
 8B11  A0 04     LDY  #$04
 8B13  91 1E     STA  ($1E), Y
 8B15  60        RTS  
 8B16  A9 78     LDA  #$78
 8B18  86 2A     STX  $2A
 8B1A  38        SEC  
 8B1B  E5 2A     SBC  $2A
 8B1D  4A        LSR  
 8B1E  CA        DEX  
 8B1F  CA        DEX  
 8B20  95 00     STA  $00, X
 8B22  74 01     STZ  $01, X
 8B24  60        RTS  
 8B25  20 1B D6  JSR  $D61B
 8B28  CA        DEX  
 8B29  CA        DEX  
 8B2A  74 00     STZ  $00, X
 8B2C  74 01     STZ  $01, X
 8B2E  74 03     STZ  $03, X
 8B30  B5 02     LDA  $02, X
 8B32  C9 30     CMP  #$30
 8B34  90 23     BCC  $8B59
 8B36  C9 3A     CMP  #$3A
 8B38  90 12     BCC  $8B4C
 8B3A  C9 41     CMP  #$41
 8B3C  90 1B     BCC  $8B59
 8B3E  C9 61     CMP  #$61
 8B40  90 07     BCC  $8B49
 8B42  C9 7B     CMP  #$7B
 8B44  B0 03     BCS  $8B49
 8B46  18        CLC  
 8B47  69 E0     ADC  #$E0
 8B49  38        SEC  
 8B4A  E9 07     SBC  #$07
 8B4C  38        SEC  
 8B4D  E9 30     SBC  #$30
 8B4F  C5 18     CMP  $18
 8B51  B0 06     BCS  $8B59
 8B53  95 02     STA  $02, X
 8B55  D6 00     DEC  $00, X
 8B57  D6 01     DEC  $01, X
 8B59  60        RTS  
 8B5A  20 20 D6  JSR  $D620
 8B5D  20 82 AC  JSR  $AC82
 8B60  60        RTS  
 8B61  20 20 D6  JSR  $D620
 8B64  A0 00     LDY  #$00
 8B66  38        SEC  
 8B67  98        TYA  
 8B68  F5 02     SBC  $02, X
 8B6A  95 02     STA  $02, X
 8B6C  98        TYA  
 8B6D  F5 03     SBC  $03, X
 8B6F  95 03     STA  $03, X
 8B71  98        TYA  
 8B72  F5 00     SBC  $00, X
 8B74  95 00     STA  $00, X
 8B76  98        TYA  
 8B77  F5 01     SBC  $01, X
 8B79  95 01     STA  $01, X
 8B7B  60        RTS  
 8B7C  A9 FF     LDA  #$FF
 8B7E  85 24     STA  $24
 8B80  80 02     BRA  $8B84
 8B82  64 24     STZ  $24
 8B84  CA        DEX  
 8B85  CA        DEX  
 8B86  A5 00     LDA  $00
 8B88  95 00     STA  $00, X
 8B8A  A5 01     LDA  $01
 8B8C  95 01     STA  $01, X
 8B8E  A9 05     LDA  #$05
 8B90  A8        TAY  
 8B91  91 00     STA  ($00), Y
 8B93  88        DEY  
 8B94  10 FB     BPL  $8B91
 8B96  1A        INC  
 8B97  18        CLC  
 8B98  65 00     ADC  $00
 8B9A  85 00     STA  $00
 8B9C  90 02     BCC  $8BA0
 8B9E  E6 01     INC  $01
 8BA0  A5 24     LDA  $24
 8BA2  F0 17     BEQ  $8BBB
 8BA4  A0 14     LDY  #$14
 8BA6  5A        PHY  
 8BA7  B9 01 8C  LDA  $8C01, Y
 8BAA  91 00     STA  ($00), Y
 8BAC  88        DEY  
 8BAD  10 F8     BPL  $8BA7
 8BAF  68        PLA  
 8BB0  18        CLC  
 8BB1  65 00     ADC  $00
 8BB3  85 00     STA  $00
 8BB5  A5 01     LDA  $01
 8BB7  69 00     ADC  #$00
 8BB9  85 01     STA  $01
 8BBB  A0 24     LDY  #$24
 8BBD  5A        PHY  
 8BBE  B9 DD 8B  LDA  $8BDD, Y
 8BC1  91 00     STA  ($00), Y
 8BC3  88        DEY  
 8BC4  10 F8     BPL  $8BBE
 8BC6  68        PLA  
 8BC7  18        CLC  
 8BC8  65 00     ADC  $00
 8BCA  85 00     STA  $00
 8BCC  A5 01     LDA  $01
 8BCE  69 00     ADC  #$00
 8BD0  85 01     STA  $01
 8BD2  CA        DEX  
 8BD3  CA        DEX  
 8BD4  A5 00     LDA  $00
 8BD6  95 00     STA  $00, X
 8BD8  A5 01     LDA  $01
 8BDA  95 01     STA  $01, X
 8BDC  60        RTS  
 8BDD  38        SEC  
 8BDE  A9 00     LDA  #$00
 8BE0  F5 02     SBC  $02, X
 8BE2  95 02     STA  $02, X
 8BE4  A9 80     LDA  #$80
 8BE6  F5 03     SBC  $03, X
 8BE8  95 03     STA  $03, X
 8BEA  48        PHA  
 8BEB  B5 02     LDA  $02, X
 8BED  48        PHA  
 8BEE  18        CLC  
 8BEF  B5 00     LDA  $00, X
 8BF1  75 02     ADC  $02, X
 8BF3  95 00     STA  $00, X
 8BF5  B5 01     LDA  $01, X
 8BF7  75 03     ADC  $03, X
 8BF9  48        PHA  
 8BFA  B5 00     LDA  $00, X
 8BFC  48        PHA  
 8BFD  E8        INX  
 8BFE  E8        INX  
 8BFF  E8        INX  
 8C00  E8        INX  
 8C01  20 64 A3  JSR  $A364
 8C04  20 EE 8E  JSR  $8EEE
 8C07  B5 00     LDA  $00, X
 8C09  15 01     ORA  $01, X
 8C0B  F0 06     BEQ  $8C13
 8C0D  8A        TXA  
 8C0E  18        CLC  
 8C0F  69 06     ADC  #$06
 8C11  AA        TAX  
 8C12  60        RTS  
 8C13  E8        INX  
 8C14  E8        INX  
 8C15  A0 8C     LDY  #$8C
 8C17  A9 24     LDA  #$24
 8C19  20 BE D4  JSR  $D4BE
 8C1C  A0 D5     LDY  #$D5
 8C1E  A9 04     LDA  #$04
 8C20  20 BE D4  JSR  $D4BE
 8C23  60        RTS  
 8C24  7A        PLY  
 8C25  68        PLA  
 8C26  C8        INY  
 8C27  D0 01     BNE  $8C2A
 8C29  1A        INC  
 8C2A  84 24     STY  $24
 8C2C  85 25     STA  $25
 8C2E  20 5D D5  JSR  $D55D
 8C31  A5 02     LDA  $02
 8C33  18        CLC  
 8C34  69 04     ADC  #$04
 8C36  85 26     STA  $26
 8C38  A5 03     LDA  $03
 8C3A  69 00     ADC  #$00
 8C3C  85 27     STA  $27
 8C3E  B2 26     LDA  ($26)
 8C40  18        CLC  
 8C41  69 01     ADC  #$01
 8C43  85 28     STA  $28
 8C45  A0 01     LDY  #$01
 8C47  B1 26     LDA  ($26), Y
 8C49  69 00     ADC  #$00
 8C4B  85 29     STA  $29
 8C4D  A5 24     LDA  $24
 8C4F  92 28     STA  ($28)
 8C51  A5 25     LDA  $25
 8C53  91 28     STA  ($28), Y
 8C55  60        RTS  
 8C56  20 1B D6  JSR  $D61B
 8C59  20 CF 8D  JSR  $8DCF
 8C5C  20 69 81  JSR  $8169
 8C5F  20 53 A7  JSR  $A753
 8C62  20 7A 93  JSR  $937A
 8C65  20 90 97  JSR  $9790
 8C68  20 09 9B  JSR  $9B09
 8C6B  20 99 9F  JSR  $9F99
 8C6E  20 6E 97  JSR  $976E
 8C71  20 AF A4  JSR  $A4AF
 8C74  20 D0 A0  JSR  $A0D0
 8C77  60        RTS  
 8C78  CA        DEX  
 8C79  CA        DEX  
 8C7A  A9 29     LDA  #$29
 8C7C  95 00     STA  $00, X
 8C7E  74 01     STZ  $01, X
 8C80  20 EC 98  JSR  $98EC
 8C83  20 AF A4  JSR  $A4AF
 8C86  60        RTS  
 8C87  20 01 9D  JSR  $9D01
 8C8A  A0 A4     LDY  #$A4
 8C8C  A9 AF     LDA  #$AF
 8C8E  20 BE D4  JSR  $D4BE
 8C91  60        RTS  
 8C92  20 20 D6  JSR  $D620
 8C95  20 1C A3  JSR  $A31C
 8C98  20 CF 8D  JSR  $8DCF
 8C9B  20 69 81  JSR  $8169
 8C9E  20 53 A7  JSR  $A753
 8CA1  20 7A 93  JSR  $937A
 8CA4  20 90 97  JSR  $9790
 8CA7  20 09 9B  JSR  $9B09
 8CAA  20 99 9F  JSR  $9F99
 8CAD  20 6E 97  JSR  $976E
 8CB0  20 44 9A  JSR  $9A44
 8CB3  20 45 98  JSR  $9845
 8CB6  20 70 95  JSR  $9570
 8CB9  20 D6 A0  JSR  $A0D6
 8CBC  20 AF A4  JSR  $A4AF
 8CBF  60        RTS  
 8CC0  20 16 8B  JSR  $8B16
 8CC3  A9 3C     LDA  #$3C
 8CC5  20 16 8E  JSR  $8E16
 8CC8  B5 00     LDA  $00, X
 8CCA  48        PHA  
 8CCB  CA        DEX  
 8CCC  CA        DEX  
 8CCD  95 00     STA  $00, X
 8CCF  74 01     STZ  $01, X
 8CD1  20 67 D6  JSR  $D667
 8CD4  A9 3E     LDA  #$3E
 8CD6  20 16 8E  JSR  $8E16
 8CD9  A9 20     LDA  #$20
 8CDB  20 16 8E  JSR  $8E16
 8CDE  E8        INX  
 8CDF  E8        INX  
 8CE0  E0 78     CPX  #$78
 8CE2  F0 1E     BEQ  $8D02
 8CE4  7A        PLY  
 8CE5  A9 77     LDA  #$77
 8CE7  85 28     STA  $28
 8CE9  64 29     STZ  $29
 8CEB  CA        DEX  
 8CEC  CA        DEX  
 8CED  B2 28     LDA  ($28)
 8CEF  95 01     STA  $01, X
 8CF1  C6 28     DEC  $28
 8CF3  B2 28     LDA  ($28)
 8CF5  95 00     STA  $00, X
 8CF7  C6 28     DEC  $28
 8CF9  5A        PHY  
 8CFA  20 56 8C  JSR  $8C56
 8CFD  7A        PLY  
 8CFE  88        DEY  
 8CFF  D0 EA     BNE  $8CEB
 8D01  48        PHA  
 8D02  68        PLA  
 8D03  60        RTS  
 8D04  20 20 D6  JSR  $D620
 8D07  20 39 A3  JSR  $A339
 8D0A  20 A6 8A  JSR  $8AA6
 8D0D  20 7A 93  JSR  $937A
 8D10  20 90 97  JSR  $9790
 8D13  20 09 9B  JSR  $9B09
 8D16  20 99 9F  JSR  $9F99
 8D19  20 6E 97  JSR  $976E
 8D1C  20 AF A4  JSR  $A4AF
 8D1F  20 D0 A0  JSR  $A0D0
 8D22  60        RTS  
 8D23  20 25 D6  JSR  $D625
 8D26  20 1C A3  JSR  $A31C
 8D29  20 39 A3  JSR  $A339
 8D2C  20 A6 8A  JSR  $8AA6
 8D2F  20 7A 93  JSR  $937A
 8D32  20 90 97  JSR  $9790
 8D35  20 09 9B  JSR  $9B09
 8D38  20 99 9F  JSR  $9F99
 8D3B  20 6E 97  JSR  $976E
 8D3E  20 44 9A  JSR  $9A44
 8D41  20 45 98  JSR  $9845
 8D44  20 70 95  JSR  $9570
 8D47  20 D6 A0  JSR  $A0D6
 8D4A  20 AF A4  JSR  $A4AF
 8D4D  60        RTS  
 8D4E  20 1B D6  JSR  $D61B
 8D51  E8        INX  
 8D52  E8        INX  
 8D53  60        RTS  
 8D54  20 20 D6  JSR  $D620
 8D57  A0 10     LDY  #$10
 8D59  64 26     STZ  $26
 8D5B  20 83 89  JSR  $8983
 8D5E  B5 03     LDA  $03, X
 8D60  20 2B D5  JSR  $D52B
 8D63  B5 02     LDA  $02, X
 8D65  20 2B D5  JSR  $D52B
 8D68  20 D0 A0  JSR  $A0D0
 8D6B  20 D0 A0  JSR  $A0D0
 8D6E  B5 00     LDA  $00, X
 8D70  15 01     ORA  $01, X
 8D72  F0 39     BEQ  $8DAD
 8D74  A1 02     LDA  ($02, X)
 8D76  48        PHA  
 8D77  20 2B D5  JSR  $D52B
 8D7A  20 D0 A0  JSR  $A0D0
 8D7D  68        PLA  
 8D7E  20 01 D6  JSR  $D601
 8D81  B0 02     BCS  $8D85
 8D83  A9 2E     LDA  #$2E
 8D85  5A        PHY  
 8D86  A4 26     LDY  $26
 8D88  91 00     STA  ($00), Y
 8D8A  E6 26     INC  $26
 8D8C  7A        PLY  
 8D8D  C0 09     CPY  #$09
 8D8F  D0 03     BNE  $8D94
 8D91  20 D0 A0  JSR  $A0D0
 8D94  F6 02     INC  $02, X
 8D96  D0 02     BNE  $8D9A
 8D98  F6 03     INC  $03, X
 8D9A  B5 00     LDA  $00, X
 8D9C  D0 02     BNE  $8DA0
 8D9E  D6 01     DEC  $01, X
 8DA0  D6 00     DEC  $00, X
 8DA2  88        DEY  
 8DA3  D0 C9     BNE  $8D6E
 8DA5  20 D0 A0  JSR  $A0D0
 8DA8  20 BB 8D  JSR  $8DBB
 8DAB  80 AA     BRA  $8D57
 8DAD  A5 26     LDA  $26
 8DAF  F0 06     BEQ  $8DB7
 8DB1  20 D0 A0  JSR  $A0D0
 8DB4  20 BB 8D  JSR  $8DBB
 8DB7  20 5C A3  JSR  $A35C
 8DBA  60        RTS  
 8DBB  A0 00     LDY  #$00
 8DBD  B1 00     LDA  ($00), Y
 8DBF  20 16 8E  JSR  $8E16
 8DC2  C8        INY  
 8DC3  C0 08     CPY  #$08
 8DC5  D0 03     BNE  $8DCA
 8DC7  20 D0 A0  JSR  $A0D0
 8DCA  C6 26     DEC  $26
 8DCC  D0 EF     BNE  $8DBD
 8DCE  60        RTS  
 8DCF  20 1B D6  JSR  $D61B
 8DD2  CA        DEX  
 8DD3  CA        DEX  
 8DD4  B5 02     LDA  $02, X
 8DD6  95 00     STA  $00, X
 8DD8  B5 03     LDA  $03, X
 8DDA  95 01     STA  $01, X
 8DDC  60        RTS  
 8DDD  20 C0 B3  JSR  $B3C0
 8DE0  60        RTS  
 8DE1  A0 8D     LDY  #$8D
 8DE3  A9 FB     LDA  #$FB
 8DE5  20 BE D4  JSR  $D4BE
 8DE8  20 92 91  JSR  $9192
 8DEB  20 53 A7  JSR  $A753
 8DEE  20 8E 87  JSR  $878E
 8DF1  20 92 91  JSR  $9192
 8DF4  20 09 9B  JSR  $9B09
 8DF7  20 39 A1  JSR  $A139
 8DFA  60        RTS  
 8DFB  68        PLA  
 8DFC  85 22     STA  $22
 8DFE  68        PLA  
 8DFF  85 23     STA  $23
 8E01  A0 01     LDY  #$01
 8E03  B1 22     LDA  ($22), Y
 8E05  85 24     STA  $24
 8E07  C8        INY  
 8E08  B1 22     LDA  ($22), Y
 8E0A  85 25     STA  $25
 8E0C  6C 24 00  JMP  ($0024)
 8E0F  20 1B D6  JSR  $D61B
 8E12  B5 00     LDA  $00, X
 8E14  E8        INX  
 8E15  E8        INX  
 8E16  6C 10 00  JMP  ($0010)
 8E19  A0 2C     LDY  #$2C
 8E1B  A9 00     LDA  #$00
 8E1D  91 1E     STA  ($1E), Y
 8E1F  60        RTS  
 8E20  A0 8D     LDY  #$8D
 8E22  A9 4E     LDA  #$4E
 8E24  20 BE D4  JSR  $D4BE
 8E27  B5 00     LDA  $00, X
 8E29  15 01     ORA  $01, X
 8E2B  F0 05     BEQ  $8E32
 8E2D  20 6E A1  JSR  $A16E
 8E30  80 F5     BRA  $8E27
 8E32  E8        INX  
 8E33  E8        INX  
 8E34  60        RTS  
 8E35  20 1B D6  JSR  $D61B
 8E38  A0 00     LDY  #$00
 8E3A  5A        PHY  
 8E3B  20 64 A3  JSR  $A364
 8E3E  CA        DEX  
 8E3F  CA        DEX  
 8E40  B9 B2 8E  LDA  $8EB2, Y
 8E43  95 00     STA  $00, X
 8E45  C8        INY  
 8E46  B9 B2 8E  LDA  $8EB2, Y
 8E49  95 01     STA  $01, X
 8E4B  C8        INY  
 8E4C  15 00     ORA  $00, X
 8E4E  F0 4D     BEQ  $8E9D
 8E50  5A        PHY  
 8E51  20 6F 89  JSR  $896F
 8E54  20 A8 87  JSR  $87A8
 8E57  7A        PLY  
 8E58  B5 00     LDA  $00, X
 8E5A  15 01     ORA  $01, X
 8E5C  F0 04     BEQ  $8E62
 8E5E  E8        INX  
 8E5F  E8        INX  
 8E60  80 D9     BRA  $8E3B
 8E62  E8        INX  
 8E63  E8        INX  
 8E64  88        DEY  
 8E65  88        DEY  
 8E66  68        PLA  
 8E67  D0 0D     BNE  $8E76
 8E69  B9 D0 8E  LDA  $8ED0, Y
 8E6C  95 02     STA  $02, X
 8E6E  C8        INY  
 8E6F  B9 D0 8E  LDA  $8ED0, Y
 8E72  95 03     STA  $03, X
 8E74  80 1F     BRA  $8E95
 8E76  CA        DEX  
 8E77  CA        DEX  
 8E78  98        TYA  
 8E79  38        SEC  
 8E7A  E9 18     SBC  #$18
 8E7C  0A        ASL  
 8E7D  A8        TAY  
 8E7E  B9 E6 8E  LDA  $8EE6, Y
 8E81  95 02     STA  $02, X
 8E83  C8        INY  
 8E84  B9 E6 8E  LDA  $8EE6, Y
 8E87  95 03     STA  $03, X
 8E89  C8        INY  
 8E8A  B9 E6 8E  LDA  $8EE6, Y
 8E8D  95 04     STA  $04, X
 8E8F  C8        INY  
 8E90  B9 E6 8E  LDA  $8EE6, Y
 8E93  95 05     STA  $05, X
 8E95  A9 FF     LDA  #$FF
 8E97  95 00     STA  $00, X
 8E99  95 01     STA  $01, X
 8E9B  80 14     BRA  $8EB1
 8E9D  68        PLA  
 8E9E  D0 09     BNE  $8EA9
 8EA0  1A        INC  
 8EA1  48        PHA  
 8EA2  8A        TXA  
 8EA3  18        CLC  
 8EA4  69 06     ADC  #$06
 8EA6  AA        TAX  
 8EA7  80 92     BRA  $8E3B
 8EA9  8A        TXA  
 8EAA  18        CLC  
 8EAB  69 0A     ADC  #$0A
 8EAD  AA        TAX  
 8EAE  20 99 8F  JSR  $8F99
 8EB1  60        RTS  
 8EB2  3E D4 4E D4 54 D4 59 D4 6B D4 73 D4 7C D4 82 D4  |>.N.T.Y.k.s.|...|
 8EC2  88 D4 9B D4 A7 D4 00 00 B1 D4 B7 D4 00 00 FF 7F  |................|
 8ED2  FF 00 54 00 08 00 00 00 FF 00 FF 7F FF FF 80 00  |..T.............|
 8EE2  20 00 09 00 FF 7F FF FF FF FF FF FF              | ...........    |
 8EEE  20 20 D6  JSR  $D620
 8EF1  B5 00     LDA  $00, X
 8EF3  D5 02     CMP  $02, X
 8EF5  D0 0A     BNE  $8F01
 8EF7  B5 01     LDA  $01, X
 8EF9  D5 03     CMP  $03, X
 8EFB  D0 04     BNE  $8F01
 8EFD  A9 FF     LDA  #$FF
 8EFF  80 02     BRA  $8F03
 8F01  A9 00     LDA  #$00
 8F03  95 02     STA  $02, X
 8F05  95 03     STA  $03, X
 8F07  E8        INX  
 8F08  E8        INX  
 8F09  60        RTS  
 8F0A  CA        DEX  
 8F0B  CA        DEX  
 8F0C  A9 20     LDA  #$20
 8F0E  95 00     STA  $00, X
 8F10  74 01     STZ  $01, X
 8F12  80 06     BRA  $8F1A
 8F14  CA        DEX  
 8F15  CA        DEX  
 8F16  74 00     STZ  $00, X
 8F18  74 01     STZ  $01, X
 8F1A  20 25 D6  JSR  $D625
 8F1D  B5 04     LDA  $04, X
 8F1F  85 24     STA  $24
 8F21  B5 05     LDA  $05, X
 8F23  85 25     STA  $25
 8F25  B5 02     LDA  $02, X
 8F27  85 26     STA  $26
 8F29  B5 03     LDA  $03, X
 8F2B  85 27     STA  $27
 8F2D  B5 00     LDA  $00, X
 8F2F  A8        TAY  
 8F30  A9 7F     LDA  #$7F
 8F32  C5 25     CMP  $25
 8F34  90 21     BCC  $8F57
 8F36  D0 06     BNE  $8F3E
 8F38  A9 FF     LDA  #$FF
 8F3A  C5 24     CMP  $24
 8F3C  90 19     BCC  $8F57
 8F3E  A5 26     LDA  $26
 8F40  05 27     ORA  $27
 8F42  F0 13     BEQ  $8F57
 8F44  98        TYA  
 8F45  92 24     STA  ($24)
 8F47  A5 26     LDA  $26
 8F49  D0 02     BNE  $8F4D
 8F4B  C6 27     DEC  $27
 8F4D  C6 26     DEC  $26
 8F4F  E6 24     INC  $24
 8F51  D0 DD     BNE  $8F30
 8F53  E6 25     INC  $25
 8F55  80 D9     BRA  $8F30
 8F57  8A        TXA  
 8F58  18        CLC  
 8F59  69 06     ADC  #$06
 8F5B  AA        TAX  
 8F5C  60        RTS  
 8F5D  20 1B D6  JSR  $D61B
 8F60  20 64 8F  JSR  $8F64
 8F63  60        RTS  
 8F64  B5 00     LDA  $00, X
 8F66  85 0E     STA  $0E
 8F68  B5 01     LDA  $01, X
 8F6A  85 0F     STA  $0F
 8F6C  E8        INX  
 8F6D  E8        INX  
 8F6E  6C 0E 00  JMP  ($000E)
 8F71  20 25 D6  JSR  $D625
 8F74  20 82 92  JSR  $9282
 8F77  20 8E 96  JSR  $968E
 8F7A  B5 00     LDA  $00, X
 8F7C  85 0A     STA  $0A
 8F7E  B5 01     LDA  $01, X
 8F80  85 0B     STA  $0B
 8F82  B5 02     LDA  $02, X
 8F84  85 08     STA  $08
 8F86  B5 03     LDA  $03, X
 8F88  85 09     STA  $09
 8F8A  64 0C     STZ  $0C
 8F8C  64 0D     STZ  $0D
 8F8E  20 5C A3  JSR  $A35C
 8F91  20 5D 8F  JSR  $8F5D
 8F94  20 55 9A  JSR  $9A55
 8F97  60        RTS  
 8F98  60        RTS  
 8F99  CA        DEX  
 8F9A  CA        DEX  
 8F9B  74 00     STZ  $00, X
 8F9D  74 01     STZ  $01, X
 8F9F  60        RTS  
 8FA0  20 1B D6  JSR  $D61B
 8FA3  A1 00     LDA  ($00, X)
 8FA5  A8        TAY  
 8FA6  F6 00     INC  $00, X
 8FA8  D0 02     BNE  $8FAC
 8FAA  F6 01     INC  $01, X
 8FAC  A1 00     LDA  ($00, X)
 8FAE  95 01     STA  $01, X
 8FB0  94 00     STY  $00, X
 8FB2  60        RTS  
 8FB3  20 1B D6  JSR  $D61B
 8FB6  B5 01     LDA  $01, X
 8FB8  48        PHA  
 8FB9  B5 00     LDA  $00, X
 8FBB  48        PHA  
 8FBC  20 6F 89  JSR  $896F
 8FBF  20 FB 8F  JSR  $8FFB
 8FC2  B5 00     LDA  $00, X
 8FC4  15 01     ORA  $01, X
 8FC6  D0 0B     BNE  $8FD3
 8FC8  20 99 8F  JSR  $8F99
 8FCB  68        PLA  
 8FCC  95 02     STA  $02, X
 8FCE  68        PLA  
 8FCF  95 03     STA  $03, X
 8FD1  80 27     BRA  $8FFA
 8FD3  68        PLA  
 8FD4  68        PLA  
 8FD5  20 CF 8D  JSR  $8DCF
 8FD8  20 01 96  JSR  $9601
 8FDB  20 5A A1  JSR  $A15A
 8FDE  A0 00     LDY  #$00
 8FE0  F6 00     INC  $00, X
 8FE2  D0 02     BNE  $8FE6
 8FE4  F6 01     INC  $01, X
 8FE6  A1 00     LDA  ($00, X)
 8FE8  29 04     AND  #$04
 8FEA  D0 08     BNE  $8FF4
 8FEC  A9 FF     LDA  #$FF
 8FEE  95 00     STA  $00, X
 8FF0  95 01     STA  $01, X
 8FF2  80 06     BRA  $8FFA
 8FF4  A9 01     LDA  #$01
 8FF6  95 00     STA  $00, X
 8FF8  74 01     STZ  $01, X
 8FFA  60        RTS  
 8FFB  20 20 D6  JSR  $D620
 8FFE  B5 00     LDA  $00, X
 9000  15 01     ORA  $01, X
 9002  D0 03     BNE  $9007
 9004  4C A0 90  JMP  $90A0
 9007  64 28     STZ  $28
 9009  A0 1E     LDY  #$1E
 900B  A5 28     LDA  $28
 900D  D1 1E     CMP  ($1E), Y
 900F  D0 03     BNE  $9014
 9011  4C A0 90  JMP  $90A0
 9014  18        CLC  
 9015  69 1F     ADC  #$1F
 9017  A8        TAY  
 9018  B1 1E     LDA  ($1E), Y
 901A  0A        ASL  
 901B  18        CLC  
 901C  69 06     ADC  #$06
 901E  A8        TAY  
 901F  B1 1E     LDA  ($1E), Y
 9021  85 24     STA  $24
 9023  C8        INY  
 9024  B1 1E     LDA  ($1E), Y
 9026  85 25     STA  $25
 9028  B5 02     LDA  $02, X
 902A  85 26     STA  $26
 902C  B5 03     LDA  $03, X
 902E  85 27     STA  $27
 9030  B2 24     LDA  ($24)
 9032  D5 00     CMP  $00, X
 9034  D0 54     BNE  $908A
 9036  B2 26     LDA  ($26)
 9038  C9 5B     CMP  #$5B
 903A  B0 07     BCS  $9043
 903C  C9 41     CMP  #$41
 903E  90 03     BCC  $9043
 9040  18        CLC  
 9041  69 20     ADC  #$20
 9043  A0 08     LDY  #$08
 9045  D1 24     CMP  ($24), Y
 9047  D0 41     BNE  $908A
 9049  B5 00     LDA  $00, X
 904B  3A        DEC  
 904C  F0 2C     BEQ  $907A
 904E  A5 24     LDA  $24
 9050  48        PHA  
 9051  18        CLC  
 9052  69 08     ADC  #$08
 9054  85 24     STA  $24
 9056  A5 25     LDA  $25
 9058  48        PHA  
 9059  69 00     ADC  #$00
 905B  85 25     STA  $25
 905D  B4 00     LDY  $00, X
 905F  88        DEY  
 9060  B1 26     LDA  ($26), Y
 9062  C9 5B     CMP  #$5B
 9064  B0 07     BCS  $906D
 9066  C9 41     CMP  #$41
 9068  90 03     BCC  $906D
 906A  18        CLC  
 906B  69 20     ADC  #$20
 906D  D1 24     CMP  ($24), Y
 906F  D0 13     BNE  $9084
 9071  88        DEY  
 9072  D0 EC     BNE  $9060
 9074  68        PLA  
 9075  85 25     STA  $25
 9077  68        PLA  
 9078  85 24     STA  $24
 907A  A5 24     LDA  $24
 907C  95 02     STA  $02, X
 907E  A5 25     LDA  $25
 9080  95 03     STA  $03, X
 9082  80 20     BRA  $90A4
 9084  68        PLA  
 9085  85 25     STA  $25
 9087  68        PLA  
 9088  85 24     STA  $24
 908A  A0 02     LDY  #$02
 908C  B1 24     LDA  ($24), Y
 908E  48        PHA  
 908F  C8        INY  
 9090  B1 24     LDA  ($24), Y
 9092  85 25     STA  $25
 9094  68        PLA  
 9095  85 24     STA  $24
 9097  05 25     ORA  $25
 9099  D0 95     BNE  $9030
 909B  E6 28     INC  $28
 909D  4C 09 90  JMP  $9009
 90A0  74 02     STZ  $02, X
 90A2  74 03     STZ  $03, X
 90A4  E8        INX  
 90A5  E8        INX  
 90A6  60        RTS  
 90A7  20 70 9E  JSR  $9E70
 90AA  A0 2C     LDY  #$2C
 90AC  A9 00     LDA  #$00
 90AE  91 1E     STA  ($1E), Y
 90B0  60        RTS  
 90B1  20 25 D6  JSR  $D625
 90B4  64 26     STZ  $26
 90B6  B5 01     LDA  $01, X
 90B8  10 0E     BPL  $90C8
 90BA  E6 26     INC  $26
 90BC  20 43 96  JSR  $9643
 90BF  20 1C A3  JSR  $A31C
 90C2  20 61 8B  JSR  $8B61
 90C5  20 44 9A  JSR  $9A44
 90C8  B5 03     LDA  $03, X
 90CA  10 0D     BPL  $90D9
 90CC  18        CLC  
 90CD  B5 00     LDA  $00, X
 90CF  75 02     ADC  $02, X
 90D1  95 02     STA  $02, X
 90D3  B5 01     LDA  $01, X
 90D5  75 03     ADC  $03, X
 90D7  95 03     STA  $03, X
 90D9  20 66 A5  JSR  $A566
 90DC  A5 26     LDA  $26
 90DE  F0 07     BEQ  $90E7
 90E0  E8        INX  
 90E1  E8        INX  
 90E2  20 43 96  JSR  $9643
 90E5  CA        DEX  
 90E6  CA        DEX  
 90E7  60        RTS  
 90E8  A0 1F     LDY  #$1F
 90EA  A9 00     LDA  #$00
 90EC  91 1E     STA  ($1E), Y
 90EE  60        RTS  
 90EF  A9 FF     LDA  #$FF
 90F1  85 24     STA  $24
 90F3  80 11     BRA  $9106
 90F5  20 20 D6  JSR  $D620
 90F8  64 24     STZ  $24
 90FA  B5 00     LDA  $00, X
 90FC  15 01     ORA  $01, X
 90FE  D0 06     BNE  $9106
 9100  E8        INX  
 9101  E8        INX  
 9102  E8        INX  
 9103  E8        INX  
 9104  80 42     BRA  $9148
 9106  A0 01     LDY  #$01
 9108  B1 1E     LDA  ($1E), Y
 910A  48        PHA  
 910B  88        DEY  
 910C  B1 1E     LDA  ($1E), Y
 910E  48        PHA  
 910F  A5 24     LDA  $24
 9111  D0 05     BNE  $9118
 9113  91 1E     STA  ($1E), Y
 9115  C8        INY  
 9116  91 1E     STA  ($1E), Y
 9118  20 82 92  JSR  $9282
 911B  A9 FF     LDA  #$FF
 911D  85 06     STA  $06
 911F  85 07     STA  $07
 9121  64 0C     STZ  $0C
 9123  64 0D     STZ  $0D
 9125  B5 00     LDA  $00, X
 9127  85 0A     STA  $0A
 9129  B5 01     LDA  $01, X
 912B  85 0B     STA  $0B
 912D  B5 02     LDA  $02, X
 912F  85 08     STA  $08
 9131  B5 03     LDA  $03, X
 9133  85 09     STA  $09
 9135  E8        INX  
 9136  E8        INX  
 9137  E8        INX  
 9138  E8        INX  
 9139  20 83 D5  JSR  $D583
 913C  20 55 9A  JSR  $9A55
 913F  A0 00     LDY  #$00
 9141  68        PLA  
 9142  91 1E     STA  ($1E), Y
 9144  C8        INY  
 9145  68        PLA  
 9146  91 1E     STA  ($1E), Y
 9148  60        RTS  
 9149  CA        DEX  
 914A  CA        DEX  
 914B  A0 04     LDY  #$04
 914D  B1 1E     LDA  ($1E), Y
 914F  95 00     STA  $00, X
 9151  74 01     STZ  $01, X
 9153  60        RTS  
 9154  A0 1E     LDY  #$1E
 9156  B1 1E     LDA  ($1E), Y
 9158  85 24     STA  $24
 915A  F0 16     BEQ  $9172
 915C  C6 24     DEC  $24
 915E  A9 1F     LDA  #$1F
 9160  18        CLC  
 9161  65 24     ADC  $24
 9163  A8        TAY  
 9164  CA        DEX  
 9165  CA        DEX  
 9166  B1 1E     LDA  ($1E), Y
 9168  95 00     STA  $00, X
 916A  74 01     STZ  $01, X
 916C  A9 00     LDA  #$00
 916E  C5 24     CMP  $24
 9170  D0 EA     BNE  $915C
 9172  CA        DEX  
 9173  CA        DEX  
 9174  A0 1E     LDY  #$1E
 9176  B1 1E     LDA  ($1E), Y
 9178  95 00     STA  $00, X
 917A  74 01     STZ  $01, X
 917C  60        RTS  
 917D  20 20 D6  JSR  $D620
 9180  A0 00     LDY  #$00
 9182  20 42 D5  JSR  $D542
 9185  F0 03     BEQ  $918A
 9187  10 01     BPL  $918A
 9189  88        DEY  
 918A  98        TYA  
 918B  E8        INX  
 918C  E8        INX  
 918D  95 00     STA  $00, X
 918F  95 01     STA  $01, X
 9191  60        RTS  
 9192  CA        DEX  
 9193  CA        DEX  
 9194  A5 00     LDA  $00
 9196  95 00     STA  $00, X
 9198  A5 01     LDA  $01
 919A  95 01     STA  $01, X
 919C  60        RTS  
 919D  A9 10     LDA  #$10
 919F  85 18     STA  $18
 91A1  64 19     STZ  $19
 91A3  60        RTS  
 91A4  20 25 D6  JSR  $D625
 91A7  20 CF 8D  JSR  $8DCF
 91AA  20 4E A4  JSR  $A44E
 91AD  B5 00     LDA  $00, X
 91AF  15 01     ORA  $01, X
 91B1  F0 36     BEQ  $91E9
 91B3  20 6C 86  JSR  $866C
 91B6  20 4E A4  JSR  $A44E
 91B9  20 53 A7  JSR  $A753
 91BC  20 53 A7  JSR  $A753
 91BF  20 D4 A3  JSR  $A3D4
 91C2  20 69 A2  JSR  $A269
 91C5  B5 00     LDA  $00, X
 91C7  15 01     ORA  $01, X
 91C9  D0 17     BNE  $91E2
 91CB  20 5C A3  JSR  $A35C
 91CE  20 A0 8A  JSR  $8AA0
 91D1  20 2F 9A  JSR  $9A2F
 91D4  20 35 86  JSR  $8635
 91D7  20 44 9A  JSR  $9A44
 91DA  20 CF 97  JSR  $97CF
 91DD  20 1C A3  JSR  $A31C
 91E0  80 CB     BRA  $91AD
 91E2  8A        TXA  
 91E3  18        CLC  
 91E4  69 08     ADC  #$08
 91E6  AA        TAX  
 91E7  80 C4     BRA  $91AD
 91E9  E8        INX  
 91EA  E8        INX  
 91EB  E8        INX  
 91EC  E8        INX  
 91ED  20 D4 A3  JSR  $A3D4
 91F0  20 5A A1  JSR  $A15A
 91F3  20 70 95  JSR  $9570
 91F6  60        RTS  
 91F7  20 1B D6  JSR  $D61B
 91FA  A5 34     LDA  $34
 91FC  D0 02     BNE  $9200
 91FE  C6 35     DEC  $35
 9200  C6 34     DEC  $34
 9202  B5 00     LDA  $00, X
 9204  92 34     STA  ($34)
 9206  E8        INX  
 9207  E8        INX  
 9208  60        RTS  
 9209  CA        DEX  
 920A  CA        DEX  
 920B  86 2A     STX  $2A
 920D  BA        TSX  
 920E  38        SEC  
 920F  BD 01 01  LDA  $0101, X
 9212  FD 03 01  SBC  $0103, X
 9215  A8        TAY  
 9216  BD 02 01  LDA  $0102, X
 9219  FD 04 01  SBC  $0104, X
 921C  A6 2A     LDX  $2A
 921E  95 01     STA  $01, X
 9220  94 00     STY  $00, X
 9222  60        RTS  
 9223  A0 92     LDY  #$92
 9225  A9 34     LDA  #$34
 9227  20 BE D4  JSR  $D4BE
 922A  20 92 91  JSR  $9192
 922D  20 53 A7  JSR  $A753
 9230  20 8E 87  JSR  $878E
 9233  60        RTS  
 9234  68        PLA  
 9235  85 22     STA  $22
 9237  68        PLA  
 9238  85 23     STA  $23
 923A  B5 00     LDA  $00, X
 923C  15 01     ORA  $01, X
 923E  F0 0F     BEQ  $924F
 9240  A5 22     LDA  $22
 9242  18        CLC  
 9243  69 02     ADC  #$02
 9245  85 24     STA  $24
 9247  A5 23     LDA  $23
 9249  69 00     ADC  #$00
 924B  85 25     STA  $25
 924D  80 13     BRA  $9262
 924F  A0 01     LDY  #$01
 9251  B1 22     LDA  ($22), Y
 9253  85 24     STA  $24
 9255  C8        INY  
 9256  B1 22     LDA  ($22), Y
 9258  85 25     STA  $25
 925A  A5 24     LDA  $24
 925C  D0 02     BNE  $9260
 925E  C6 25     DEC  $25
 9260  C6 24     DEC  $24
 9262  A5 25     LDA  $25
 9264  48        PHA  
 9265  A5 24     LDA  $24
 9267  48        PHA  
 9268  E8        INX  
 9269  E8        INX  
 926A  60        RTS  
 926B  20 5D D5  JSR  $D55D
 926E  A0 01     LDY  #$01
 9270  B1 02     LDA  ($02), Y
 9272  09 04     ORA  #$04
 9274  91 02     STA  ($02), Y
 9276  60        RTS  
 9277  CA        DEX  
 9278  CA        DEX  
 9279  A9 12     LDA  #$12
 927B  95 00     STA  $00, X
 927D  A9 00     LDA  #$00
 927F  95 01     STA  $01, X
 9281  60        RTS  
 9282  68        PLA  
 9283  85 24     STA  $24
 9285  68        PLA  
 9286  85 25     STA  $25
 9288  A0 07     LDY  #$07
 928A  B9 06 00  LDA  $0006, Y
 928D  48        PHA  
 928E  88        DEY  
 928F  10 F9     BPL  $928A
 9291  A5 25     LDA  $25
 9293  48        PHA  
 9294  A5 24     LDA  $24
 9296  48        PHA  
 9297  60        RTS  
 9298  20 1B D6  JSR  $D61B
 929B  CA        DEX  
 929C  CA        DEX  
 929D  74 00     STZ  $00, X
 929F  74 01     STZ  $01, X
 92A1  B5 00     LDA  $00, X
 92A3  0A        ASL  
 92A4  18        CLC  
 92A5  69 06     ADC  #$06
 92A7  A8        TAY  
 92A8  B1 1E     LDA  ($1E), Y
 92AA  85 26     STA  $26
 92AC  C8        INY  
 92AD  B1 1E     LDA  ($1E), Y
 92AF  85 27     STA  $27
 92B1  A5 26     LDA  $26
 92B3  05 27     ORA  $27
 92B5  F0 38     BEQ  $92EF
 92B7  B5 02     LDA  $02, X
 92B9  85 28     STA  $28
 92BB  B5 03     LDA  $03, X
 92BD  85 29     STA  $29
 92BF  A0 04     LDY  #$04
 92C1  B1 26     LDA  ($26), Y
 92C3  C5 28     CMP  $28
 92C5  D0 07     BNE  $92CE
 92C7  C8        INY  
 92C8  B1 26     LDA  ($26), Y
 92CA  C5 29     CMP  $29
 92CC  F0 32     BEQ  $9300
 92CE  18        CLC  
 92CF  A5 26     LDA  $26
 92D1  69 02     ADC  #$02
 92D3  85 26     STA  $26
 92D5  A5 27     LDA  $27
 92D7  69 00     ADC  #$00
 92D9  85 27     STA  $27
 92DB  A0 00     LDY  #$00
 92DD  B1 26     LDA  ($26), Y
 92DF  48        PHA  
 92E0  C8        INY  
 92E1  11 26     ORA  ($26), Y
 92E3  F0 09     BEQ  $92EE
 92E5  B1 26     LDA  ($26), Y
 92E7  85 27     STA  $27
 92E9  68        PLA  
 92EA  85 26     STA  $26
 92EC  80 D1     BRA  $92BF
 92EE  68        PLA  
 92EF  B5 00     LDA  $00, X
 92F1  1A        INC  
 92F2  95 00     STA  $00, X
 92F4  C9 0C     CMP  #$0C
 92F6  D0 A9     BNE  $92A1
 92F8  E8        INX  
 92F9  E8        INX  
 92FA  74 00     STZ  $00, X
 92FC  74 01     STZ  $01, X
 92FE  80 0A     BRA  $930A
 9300  E8        INX  
 9301  E8        INX  
 9302  A5 26     LDA  $26
 9304  95 00     STA  $00, X
 9306  A5 27     LDA  $27
 9308  95 01     STA  $01, X
 930A  60        RTS  
 930B  20 1B D6  JSR  $D61B
 930E  A9 FF     LDA  #$FF
 9310  55 00     EOR  $00, X
 9312  95 00     STA  $00, X
 9314  A9 FF     LDA  #$FF
 9316  55 01     EOR  $01, X
 9318  95 01     STA  $01, X
 931A  60        RTS  
 931B  A5 16     LDA  $16
 931D  05 17     ORA  $17
 931F  F0 0C     BEQ  $932D
 9321  20 BE 85  JSR  $85BE
 9324  A0 8B     LDY  #$8B
 9326  A9 06     LDA  #$06
 9328  20 BE D4  JSR  $D4BE
 932B  80 06     BRA  $9333
 932D  20 BD A1  JSR  $A1BD
 9330  20 06 8B  JSR  $8B06
 9333  60        RTS  
 9334  CA        DEX  
 9335  CA        DEX  
 9336  86 2A     STX  $2A
 9338  BA        TSX  
 9339  38        SEC  
 933A  BD 07 01  LDA  $0107, X
 933D  FD 09 01  SBC  $0109, X
 9340  A8        TAY  
 9341  BD 08 01  LDA  $0108, X
 9344  FD 0A 01  SBC  $010A, X
 9347  A6 2A     LDX  $2A
 9349  95 01     STA  $01, X
 934B  94 00     STY  $00, X
 934D  60        RTS  
 934E  20 58 93  JSR  $9358
 9351  CA        DEX  
 9352  CA        DEX  
 9353  95 00     STA  $00, X
 9355  74 01     STZ  $01, X
 9357  60        RTS  
 9358  6C 12 00  JMP  ($0012)
 935B  CA        DEX  
 935C  CA        DEX  
 935D  20 5D D5  JSR  $D55D
 9360  A5 02     LDA  $02
 9362  95 00     STA  $00, X
 9364  A5 03     LDA  $03
 9366  95 01     STA  $01, X
 9368  60        RTS  
 9369  20 5B 93  JSR  $935B
 936C  20 01 96  JSR  $9601
 936F  60        RTS  
 9370  68        PLA  
 9371  68        PLA  
 9372  68        PLA  
 9373  68        PLA  
 9374  60        RTS  
 9375  64 16     STZ  $16
 9377  64 17     STZ  $17
 9379  60        RTS  
 937A  20 53 98  JSR  $9853
 937D  B5 00     LDA  $00, X
 937F  85 34     STA  $34
 9381  B5 01     LDA  $01, X
 9383  85 35     STA  $35
 9385  E8        INX  
 9386  E8        INX  
 9387  60        RTS  
 9388  20 20 D6  JSR  $D620
 938B  A0 00     LDY  #$00
 938D  20 42 D5  JSR  $D542
 9390  F0 03     BEQ  $9395
 9392  30 01     BMI  $9395
 9394  88        DEY  
 9395  98        TYA  
 9396  E8        INX  
 9397  E8        INX  
 9398  95 00     STA  $00, X
 939A  95 01     STA  $01, X
 939C  60        RTS  
 939D  20 1B D6  JSR  $D61B
 93A0  20 8B 9E  JSR  $9E8B
 93A3  20 39 A1  JSR  $A139
 93A6  20 F1 A7  JSR  $A7F1
 93A9  60        RTS  
 93AA  20 1B D6  JSR  $D61B
 93AD  A0 93     LDY  #$93
 93AF  A9 B8     LDA  #$B8
 93B1  20 BE D4  JSR  $D4BE
 93B4  20 8E 87  JSR  $878E
 93B7  60        RTS  
 93B8  CA        DEX  
 93B9  CA        DEX  
 93BA  68        PLA  
 93BB  85 24     STA  $24
 93BD  68        PLA  
 93BE  85 25     STA  $25
 93C0  A0 01     LDY  #$01
 93C2  B1 24     LDA  ($24), Y
 93C4  95 00     STA  $00, X
 93C6  C8        INY  
 93C7  B1 24     LDA  ($24), Y
 93C9  95 01     STA  $01, X
 93CB  98        TYA  
 93CC  18        CLC  
 93CD  65 24     ADC  $24
 93CF  A8        TAY  
 93D0  A5 25     LDA  $25
 93D2  69 00     ADC  #$00
 93D4  48        PHA  
 93D5  5A        PHY  
 93D6  60        RTS  
 93D7  20 1B D6  JSR  $D61B
 93DA  A0 01     LDY  #$01
 93DC  B1 1E     LDA  ($1E), Y
 93DE  48        PHA  
 93DF  88        DEY  
 93E0  B1 1E     LDA  ($1E), Y
 93E2  48        PHA  
 93E3  B5 00     LDA  $00, X
 93E5  91 1E     STA  ($1E), Y
 93E7  C8        INY  
 93E8  B5 01     LDA  $01, X
 93EA  91 1E     STA  ($1E), Y
 93EC  20 E1 83  JSR  $83E1
 93EF  CA        DEX  
 93F0  CA        DEX  
 93F1  A9 04     LDA  #$04
 93F3  95 01     STA  $01, X
 93F5  74 00     STZ  $00, X
 93F7  20 EF 90  JSR  $90EF
 93FA  A0 00     LDY  #$00
 93FC  68        PLA  
 93FD  91 1E     STA  ($1E), Y
 93FF  C8        INY  
 9400  68        PLA  
 9401  91 1E     STA  ($1E), Y
 9403  88        DEY  
 9404  11 1E     ORA  ($1E), Y
 9406  F0 12     BEQ  $941A
 9408  CA        DEX  
 9409  CA        DEX  
 940A  A0 00     LDY  #$00
 940C  B1 1E     LDA  ($1E), Y
 940E  95 00     STA  $00, X
 9410  C8        INY  
 9411  B1 1E     LDA  ($1E), Y
 9413  95 01     STA  $01, X
 9415  20 E1 83  JSR  $83E1
 9418  E8        INX  
 9419  E8        INX  
 941A  60        RTS  
 941B  A0 97     LDY  #$97
 941D  A9 BA     LDA  #$BA
 941F  20 BE D4  JSR  $D4BE
 9422  A0 11     LDY  #$11
 9424  5A        PHY  
 9425  B9 89 94  LDA  $9489, Y
 9428  91 00     STA  ($00), Y
 942A  88        DEY  
 942B  10 F8     BPL  $9425
 942D  68        PLA  
 942E  18        CLC  
 942F  65 00     ADC  $00
 9431  85 00     STA  $00
 9433  A5 01     LDA  $01
 9435  69 00     ADC  #$00
 9437  85 01     STA  $01
 9439  20 8E 87  JSR  $878E
 943C  A9 68     LDA  #$68
 943E  A0 06     LDY  #$06
 9440  91 00     STA  ($00), Y
 9442  88        DEY  
 9443  10 FB     BPL  $9440
 9445  A9 06     LDA  #$06
 9447  18        CLC  
 9448  65 00     ADC  $00
 944A  85 00     STA  $00
 944C  A5 01     LDA  $01
 944E  69 00     ADC  #$00
 9450  85 01     STA  $01
 9452  B5 00     LDA  $00, X
 9454  85 24     STA  $24
 9456  B5 01     LDA  $01, X
 9458  85 25     STA  $25
 945A  E8        INX  
 945B  E8        INX  
 945C  A5 00     LDA  $00
 945E  38        SEC  
 945F  E9 01     SBC  #$01
 9461  85 26     STA  $26
 9463  A5 01     LDA  $01
 9465  E9 00     SBC  #$00
 9467  85 27     STA  $27
 9469  A0 00     LDY  #$00
 946B  A9 A9     LDA  #$A9
 946D  91 24     STA  ($24), Y
 946F  C8        INY  
 9470  A5 27     LDA  $27
 9472  91 24     STA  ($24), Y
 9474  C8        INY  
 9475  A9 48     LDA  #$48
 9477  91 24     STA  ($24), Y
 9479  C8        INY  
 947A  A9 A9     LDA  #$A9
 947C  91 24     STA  ($24), Y
 947E  C8        INY  
 947F  A5 26     LDA  $26
 9481  91 24     STA  ($24), Y
 9483  C8        INY  
 9484  A9 48     LDA  #$48
 9486  91 24     STA  ($24), Y
 9488  60        RTS  
 9489  18        CLC  
 948A  68        PLA  
 948B  75 00     ADC  $00, X
 948D  A8        TAY  
 948E  B8        CLV  
 948F  68        PLA  
 9490  75 01     ADC  $01, X
 9492  48        PHA  
 9493  98        TYA  
 9494  48        PHA  
 9495  E8        INX  
 9496  E8        INX  
 9497  70 03     BVS  $949C
 9499  4C                                               |L               |
 949A  20 20 D6  JSR  $D620
 949D  B5 00     LDA  $00, X
 949F  29 0F     AND  #$0F
 94A1  F0 08     BEQ  $94AB
 94A3  A8        TAY  
 94A4  16 02     ASL  $02, X
 94A6  36 03     ROL  $03, X
 94A8  88        DEY  
 94A9  D0 F9     BNE  $94A4
 94AB  E8        INX  
 94AC  E8        INX  
 94AD  60        RTS  
 94AE  20 20 D6  JSR  $D620
 94B1  B5 01     LDA  $01, X
 94B3  55 03     EOR  $03, X
 94B5  48        PHA  
 94B6  20 69 81  JSR  $8169
 94B9  20 5A A1  JSR  $A15A
 94BC  20 69 81  JSR  $8169
 94BF  20 A8 A5  JSR  $A5A8
 94C2  68        PLA  
 94C3  10 03     BPL  $94C8
 94C5  20 61 8B  JSR  $8B61
 94C8  60        RTS  
 94C9  20 5D D5  JSR  $D55D
 94CC  A5 02     LDA  $02
 94CE  48        PHA  
 94CF  A5 03     LDA  $03
 94D1  48        PHA  
 94D2  A5 00     LDA  $00
 94D4  48        PHA  
 94D5  A5 01     LDA  $01
 94D7  48        PHA  
 94D8  20 89 89  JSR  $8989
 94DB  A5 00     LDA  $00
 94DD  38        SEC  
 94DE  E9 02     SBC  #$02
 94E0  85 00     STA  $00
 94E2  A5 01     LDA  $01
 94E4  E9 00     SBC  #$00
 94E6  85 01     STA  $01
 94E8  A0 95     LDY  #$95
 94EA  A9 07     LDA  #$07
 94EC  20 CA D4  JSR  $D4CA
 94EF  7A        PLY  
 94F0  68        PLA  
 94F1  20 CA D4  JSR  $D4CA
 94F4  7A        PLY  
 94F5  68        PLA  
 94F6  20 CA D4  JSR  $D4CA
 94F9  A0 04     LDY  #$04
 94FB  B1 1E     LDA  ($1E), Y
 94FD  20 CE D4  JSR  $D4CE
 9500  C8        INY  
 9501  98        TYA  
 9502  C9 28     CMP  #$28
 9504  D0 F5     BNE  $94FB
 9506  60        RTS  
 9507  68        PLA  
 9508  85 24     STA  $24
 950A  68        PLA  
 950B  85 25     STA  $25
 950D  E6 24     INC  $24
 950F  D0 02     BNE  $9513
 9511  E6 25     INC  $25
 9513  A0 00     LDY  #$00
 9515  B1 24     LDA  ($24), Y
 9517  85 00     STA  $00
 9519  C8        INY  
 951A  B1 24     LDA  ($24), Y
 951C  85 01     STA  $01
 951E  C8        INY  
 951F  B1 24     LDA  ($24), Y
 9521  85 02     STA  $02
 9523  C8        INY  
 9524  B1 24     LDA  ($24), Y
 9526  85 03     STA  $03
 9528  A0 04     LDY  #$04
 952A  B1 24     LDA  ($24), Y
 952C  91 1E     STA  ($1E), Y
 952E  C8        INY  
 952F  98        TYA  
 9530  C9 28     CMP  #$28
 9532  D0 F6     BNE  $952A
 9534  20 70 D5  JSR  $D570
 9537  60        RTS  
 9538  20 20 D6  JSR  $D620
 953B  B5 00     LDA  $00, X
 953D  D5 02     CMP  $02, X
 953F  B5 01     LDA  $01, X
 9541  F5 03     SBC  $03, X
 9543  50 02     BVC  $9547
 9545  49 80     EOR  #$80
 9547  30 08     BMI  $9551
 9549  B5 00     LDA  $00, X
 954B  95 02     STA  $02, X
 954D  B5 01     LDA  $01, X
 954F  95 03     STA  $03, X
 9551  E8        INX  
 9552  E8        INX  
 9553  60        RTS  
 9554  20 20 D6  JSR  $D620
 9557  B5 00     LDA  $00, X
 9559  D5 02     CMP  $02, X
 955B  B5 01     LDA  $01, X
 955D  F5 03     SBC  $03, X
 955F  50 02     BVC  $9563
 9561  49 80     EOR  #$80
 9563  10 08     BPL  $956D
 9565  B5 00     LDA  $00, X
 9567  95 02     STA  $02, X
 9569  B5 01     LDA  $01, X
 956B  95 03     STA  $03, X
 956D  E8        INX  
 956E  E8        INX  
 956F  60        RTS  
 9570  20 20 D6  JSR  $D620
 9573  38        SEC  
 9574  B5 02     LDA  $02, X
 9576  F5 00     SBC  $00, X
 9578  95 02     STA  $02, X
 957A  B5 03     LDA  $03, X
 957C  F5 01     SBC  $01, X
 957E  95 03     STA  $03, X
 9580  E8        INX  
 9581  E8        INX  
 9582  60        RTS  
 9583  20 20 D6  JSR  $D620
 9586  B5 00     LDA  $00, X
 9588  15 01     ORA  $01, X
 958A  F0 0F     BEQ  $959B
 958C  A1 02     LDA  ($02, X)
 958E  20 0E D6  JSR  $D60E
 9591  90 08     BCC  $959B
 9593  20 BA 97  JSR  $97BA
 9596  20 CB 9F  JSR  $9FCB
 9599  80 EB     BRA  $9586
 959B  60        RTS  
 959C  20 20 D6  JSR  $D620
 959F  B5 00     LDA  $00, X
 95A1  15 01     ORA  $01, X
 95A3  F0 33     BEQ  $95D8
 95A5  18        CLC  
 95A6  B5 02     LDA  $02, X
 95A8  75 00     ADC  $00, X
 95AA  85 24     STA  $24
 95AC  B5 03     LDA  $03, X
 95AE  75 01     ADC  $01, X
 95B0  85 25     STA  $25
 95B2  A5 24     LDA  $24
 95B4  D0 02     BNE  $95B8
 95B6  C6 25     DEC  $25
 95B8  C6 24     DEC  $24
 95BA  B2 24     LDA  ($24)
 95BC  C9 20     CMP  #$20
 95BE  D0 18     BNE  $95D8
 95C0  A5 24     LDA  $24
 95C2  D0 02     BNE  $95C6
 95C4  C6 25     DEC  $25
 95C6  C6 24     DEC  $24
 95C8  B5 00     LDA  $00, X
 95CA  D0 02     BNE  $95CE
 95CC  D6 01     DEC  $01, X
 95CE  D6 00     DEC  $00, X
 95D0  B5 00     LDA  $00, X
 95D2  15 01     ORA  $01, X
 95D4  F0 02     BEQ  $95D8
 95D6  80 E2     BRA  $95BA
 95D8  60        RTS  
 95D9  20 20 D6  JSR  $D620
 95DC  20 B3 9F  JSR  $9FB3
 95DF  E8        INX  
 95E0  E8        INX  
 95E1  60        RTS  
 95E2  B5 03     LDA  $03, X
 95E4  D5 05     CMP  $05, X
 95E6  F0 05     BEQ  $95ED
 95E8  B0 0E     BCS  $95F8
 95EA  4C B9 86  JMP  $86B9
 95ED  B5 02     LDA  $02, X
 95EF  D5 04     CMP  $04, X
 95F1  F0 08     BEQ  $95FB
 95F3  B0 03     BCS  $95F8
 95F5  4C B9 86  JMP  $86B9
 95F8  4C F4 86  JMP  $86F4
 95FB  8A        TXA  
 95FC  18        CLC  
 95FD  69 06     ADC  #$06
 95FF  AA        TAX  
 9600  60        RTS  
 9601  20 1B D6  JSR  $D61B
 9604  B5 00     LDA  $00, X
 9606  18        CLC  
 9607  69 04     ADC  #$04
 9609  85 28     STA  $28
 960B  B5 01     LDA  $01, X
 960D  90 01     BCC  $9610
 960F  1A        INC  
 9610  85 29     STA  $29
 9612  A0 00     LDY  #$00
 9614  B1 28     LDA  ($28), Y
 9616  95 00     STA  $00, X
 9618  C8        INY  
 9619  B1 28     LDA  ($28), Y
 961B  95 01     STA  $01, X
 961D  60        RTS  
 961E  20 1B D6  JSR  $D61B
 9621  CA        DEX  
 9622  CA        DEX  
 9623  A1 02     LDA  ($02, X)
 9625  95 00     STA  $00, X
 9627  74 01     STZ  $01, X
 9629  B5 02     LDA  $02, X
 962B  18        CLC  
 962C  69 08     ADC  #$08
 962E  A8        TAY  
 962F  B5 03     LDA  $03, X
 9631  69 00     ADC  #$00
 9633  95 03     STA  $03, X
 9635  94 02     STY  $02, X
 9637  60        RTS  
 9638  CA        DEX  
 9639  CA        DEX  
 963A  A9 1A     LDA  #$1A
 963C  95 00     STA  $00, X
 963E  A9 00     LDA  #$00
 9640  95 01     STA  $01, X
 9642  60        RTS  
 9643  20 1B D6  JSR  $D61B
 9646  A9 00     LDA  #$00
 9648  38        SEC  
 9649  F5 00     SBC  $00, X
 964B  95 00     STA  $00, X
 964D  A9 00     LDA  #$00
 964F  F5 01     SBC  $01, X
 9651  95 01     STA  $01, X
 9653  60        RTS  
 9654  20 5D D5  JSR  $D55D
 9657  A0 01     LDY  #$01
 9659  B1 02     LDA  ($02), Y
 965B  09 08     ORA  #$08
 965D  29 FD     AND  #$FD
 965F  91 02     STA  ($02), Y
 9661  60        RTS  
 9662  20 20 D6  JSR  $D620
 9665  B5 00     LDA  $00, X
 9667  95 02     STA  $02, X
 9669  B5 01     LDA  $01, X
 966B  95 03     STA  $03, X
 966D  E8        INX  
 966E  E8        INX  
 966F  60        RTS  
 9670  20 20 D6  JSR  $D620
 9673  A0 00     LDY  #$00
 9675  B5 00     LDA  $00, X
 9677  D5 02     CMP  $02, X
 9679  D0 0A     BNE  $9685
 967B  B5 01     LDA  $01, X
 967D  D5 03     CMP  $03, X
 967F  D0 04     BNE  $9685
 9681  A9 FF     LDA  #$FF
 9683  80 01     BRA  $9686
 9685  88        DEY  
 9686  98        TYA  
 9687  E8        INX  
 9688  E8        INX  
 9689  95 00     STA  $00, X
 968B  95 01     STA  $01, X
 968D  60        RTS  
 968E  20 25 D6  JSR  $D625
 9691  B4 01     LDY  $01, X
 9693  B5 03     LDA  $03, X
 9695  95 01     STA  $01, X
 9697  B5 05     LDA  $05, X
 9699  95 03     STA  $03, X
 969B  94 05     STY  $05, X
 969D  B4 00     LDY  $00, X
 969F  B5 02     LDA  $02, X
 96A1  95 00     STA  $00, X
 96A3  B5 04     LDA  $04, X
 96A5  95 02     STA  $02, X
 96A7  94 04     STY  $04, X
 96A9  60        RTS  
 96AA  20 20 D6  JSR  $D620
 96AD  64 2A     STZ  $2A
 96AF  64 2B     STZ  $2B
 96B1  A1 02     LDA  ($02, X)
 96B3  C9 2D     CMP  #$2D
 96B5  D0 0A     BNE  $96C1
 96B7  C6 2B     DEC  $2B
 96B9  F6 02     INC  $02, X
 96BB  D0 02     BNE  $96BF
 96BD  F6 03     INC  $03, X
 96BF  D6 00     DEC  $00, X
 96C1  B5 02     LDA  $02, X
 96C3  18        CLC  
 96C4  75 00     ADC  $00, X
 96C6  85 2C     STA  $2C
 96C8  B5 03     LDA  $03, X
 96CA  69 00     ADC  #$00
 96CC  85 2D     STA  $2D
 96CE  A5 2C     LDA  $2C
 96D0  D0 02     BNE  $96D4
 96D2  C6 2D     DEC  $2D
 96D4  C6 2C     DEC  $2C
 96D6  B2 2C     LDA  ($2C)
 96D8  C9 2E     CMP  #$2E
 96DA  D0 04     BNE  $96E0
 96DC  C6 2A     DEC  $2A
 96DE  D6 00     DEC  $00, X
 96E0  CA        DEX  
 96E1  CA        DEX  
 96E2  CA        DEX  
 96E3  CA        DEX  
 96E4  B5 04     LDA  $04, X
 96E6  95 00     STA  $00, X
 96E8  74 01     STZ  $01, X
 96EA  B5 06     LDA  $06, X
 96EC  95 02     STA  $02, X
 96EE  B5 07     LDA  $07, X
 96F0  95 03     STA  $03, X
 96F2  74 04     STZ  $04, X
 96F4  74 05     STZ  $05, X
 96F6  74 06     STZ  $06, X
 96F8  74 07     STZ  $07, X
 96FA  20 69 A2  JSR  $A269
 96FD  B5 00     LDA  $00, X
 96FF  F0 15     BEQ  $9716
 9701  A9 3E     LDA  #$3E
 9703  20 16 8E  JSR  $8E16
 9706  20 AF A4  JSR  $A4AF
 9709  A9 3C     LDA  #$3C
 970B  20 16 8E  JSR  $8E16
 970E  20 D0 A0  JSR  $A0D0
 9711  A9 08     LDA  #$08
 9713  4C 31 D6  JMP  $D631
 9716  E8        INX  
 9717  E8        INX  
 9718  E8        INX  
 9719  E8        INX  
 971A  A5 2A     LDA  $2A
 971C  F0 0D     BEQ  $972B
 971E  A9 20     LDA  #$20
 9720  04 20     TSB  $20
 9722  A5 2B     LDA  $2B
 9724  F0 12     BEQ  $9738
 9726  20 61 8B  JSR  $8B61
 9729  80 0D     BRA  $9738
 972B  E8        INX  
 972C  E8        INX  
 972D  A9 20     LDA  #$20
 972F  14 20     TRB  $20
 9731  A5 2B     LDA  $2B
 9733  F0 03     BEQ  $9738
 9735  20 43 96  JSR  $9643
 9738  60        RTS  
 9739  20 20 D6  JSR  $D620
 973C  20 A7 83  JSR  $83A7
 973F  20 A0 8F  JSR  $8FA0
 9742  20 1C A3  JSR  $A31C
 9745  20 53 A7  JSR  $A753
 9748  20 2F 9A  JSR  $9A2F
 974B  20 66 A5  JSR  $A566
 974E  20 09 9B  JSR  $9B09
 9751  20 09 9B  JSR  $9B09
 9754  20 44 9A  JSR  $9A44
 9757  20 66 A5  JSR  $A566
 975A  20 09 9B  JSR  $9B09
 975D  20 09 9B  JSR  $9B09
 9760  B5 00     LDA  $00, X
 9762  A8        TAY  
 9763  B9 32 D2  LDA  $D232, Y
 9766  95 00     STA  $00, X
 9768  74 01     STZ  $01, X
 976A  20 F7 91  JSR  $91F7
 976D  60        RTS  
 976E  20 20 D6  JSR  $D620
 9771  A5 34     LDA  $34
 9773  95 00     STA  $00, X
 9775  95 02     STA  $02, X
 9777  A5 35     LDA  $35
 9779  95 01     STA  $01, X
 977B  95 03     STA  $03, X
 977D  20 53 98  JSR  $9853
 9780  38        SEC  
 9781  B5 00     LDA  $00, X
 9783  F5 02     SBC  $02, X
 9785  95 02     STA  $02, X
 9787  B5 01     LDA  $01, X
 9789  F5 03     SBC  $03, X
 978B  95 03     STA  $03, X
 978D  E8        INX  
 978E  E8        INX  
 978F  60        RTS  
 9790  20 20 D6  JSR  $D620
 9793  20 39 97  JSR  $9739
 9796  B5 00     LDA  $00, X
 9798  15 01     ORA  $01, X
 979A  15 02     ORA  $02, X
 979C  15 03     ORA  $03, X
 979E  D0 F3     BNE  $9793
 97A0  60        RTS  
 97A1  A0 98     LDY  #$98
 97A3  A9 45     LDA  #$45
 97A5  20 BE D4  JSR  $D4BE
 97A8  A0 8E     LDY  #$8E
 97AA  A9 EE     LDA  #$EE
 97AC  20 BE D4  JSR  $D4BE
 97AF  20 23 92  JSR  $9223
 97B2  A0 8D     LDY  #$8D
 97B4  A9 4E     LDA  #$4E
 97B6  20 BE D4  JSR  $D4BE
 97B9  60        RTS  
 97BA  CA        DEX  
 97BB  CA        DEX  
 97BC  A9 01     LDA  #$01
 97BE  95 00     STA  $00, X
 97C0  74 01     STZ  $01, X
 97C2  60        RTS  
 97C3  20 1B D6  JSR  $D61B
 97C6  B5 00     LDA  $00, X
 97C8  D0 02     BNE  $97CC
 97CA  D6 01     DEC  $01, X
 97CC  D6 00     DEC  $00, X
 97CE  60        RTS  
 97CF  20 1B D6  JSR  $D61B
 97D2  F6 00     INC  $00, X
 97D4  D0 02     BNE  $97D8
 97D6  F6 01     INC  $01, X
 97D8  60        RTS  
 97D9  CA        DEX  
 97DA  CA        DEX  
 97DB  A9 FF     LDA  #$FF
 97DD  95 00     STA  $00, X
 97DF  95 01     STA  $01, X
 97E1  20 CD 9C  JSR  $9CCD
 97E4  60        RTS  
 97E5  20 20 D6  JSR  $D620
 97E8  B5 00     LDA  $00, X
 97EA  15 02     ORA  $02, X
 97EC  95 02     STA  $02, X
 97EE  B5 01     LDA  $01, X
 97F0  15 03     ORA  $03, X
 97F2  95 03     STA  $03, X
 97F4  E8        INX  
 97F5  E8        INX  
 97F6  60        RTS  
 97F7  20 83 89  JSR  $8983
 97FA  20 54 91  JSR  $9154
 97FD  B5 00     LDA  $00, X
 97FF  F0 1E     BEQ  $981F
 9801  A8        TAY  
 9802  E8        INX  
 9803  E8        INX  
 9804  B5 00     LDA  $00, X
 9806  5A        PHY  
 9807  20 22 98  JSR  $9822
 980A  7A        PLY  
 980B  88        DEY  
 980C  D0 F4     BNE  $9802
 980E  20 D0 A0  JSR  $A0D0
 9811  20 D0 A0  JSR  $A0D0
 9814  20 49 91  JSR  $9149
 9817  B5 00     LDA  $00, X
 9819  20 22 98  JSR  $9822
 981C  20 83 89  JSR  $8983
 981F  E8        INX  
 9820  E8        INX  
 9821  60        RTS  
 9822  C9 04     CMP  #$04
 9824  90 09     BCC  $982F
 9826  CA        DEX  
 9827  CA        DEX  
 9828  95 00     STA  $00, X
 982A  74 01     STZ  $01, X
 982C  4C DA A4  JMP  $A4DA
 982F  A8        TAY  
 9830  B9 36 98  LDA  $9836, Y
 9833  4C 47 D6  JMP  $D647
 9836  03 06 07 08                                      |....            |
 983A  CA        DEX  
 983B  CA        DEX  
 983C  A9 10     LDA  #$10
 983E  95 00     STA  $00, X
 9840  A9 00     LDA  #$00
 9842  95 01     STA  $01, X
 9844  60        RTS  
 9845  20 20 D6  JSR  $D620
 9848  CA        DEX  
 9849  CA        DEX  
 984A  B5 04     LDA  $04, X
 984C  95 00     STA  $00, X
 984E  B5 05     LDA  $05, X
 9850  95 01     STA  $01, X
 9852  60        RTS  
 9853  CA        DEX  
 9854  CA        DEX  
 9855  A5 00     LDA  $00
 9857  18        CLC  
 9858  69 FF     ADC  #$FF
 985A  95 00     STA  $00, X
 985C  A5 01     LDA  $01
 985E  69 00     ADC  #$00
 9860  95 01     STA  $01, X
 9862  60        RTS  
 9863  A9 1B     LDA  #$1B
 9865  20 16 8E  JSR  $8E16
 9868  A9 5B     LDA  #$5B
 986A  20 16 8E  JSR  $8E16
 986D  A9 32     LDA  #$32
 986F  20 16 8E  JSR  $8E16
 9872  A9 4A     LDA  #$4A
 9874  20 16 8E  JSR  $8E16
 9877  20 53 A7  JSR  $A753
 987A  20 53 A7  JSR  $A753
 987D  20 80 83  JSR  $8380
 9880  60        RTS  
 9881  CA        DEX  
 9882  CA        DEX  
 9883  A9 29     LDA  #$29
 9885  95 00     STA  $00, X
 9887  74 01     STZ  $01, X
 9889  20 EC 98  JSR  $98EC
 988C  E8        INX  
 988D  E8        INX  
 988E  E8        INX  
 988F  E8        INX  
 9890  60        RTS  
 9891  A5 0A     LDA  $0A
 9893  38        SEC  
 9894  E5 0C     SBC  $0C
 9896  85 24     STA  $24
 9898  A5 0B     LDA  $0B
 989A  E5 0D     SBC  $0D
 989C  85 25     STA  $25
 989E  A5 24     LDA  $24
 98A0  05 25     ORA  $25
 98A2  F0 28     BEQ  $98CC
 98A4  A5 08     LDA  $08
 98A6  18        CLC  
 98A7  65 0C     ADC  $0C
 98A9  85 26     STA  $26
 98AB  A5 09     LDA  $09
 98AD  65 0D     ADC  $0D
 98AF  85 27     STA  $27
 98B1  B2 26     LDA  ($26)
 98B3  20 0E D6  JSR  $D60E
 98B6  90 1F     BCC  $98D7
 98B8  E6 26     INC  $26
 98BA  D0 02     BNE  $98BE
 98BC  E6 27     INC  $27
 98BE  A5 24     LDA  $24
 98C0  D0 02     BNE  $98C4
 98C2  C6 25     DEC  $25
 98C4  C6 24     DEC  $24
 98C6  A5 24     LDA  $24
 98C8  05 25     ORA  $25
 98CA  D0 E5     BNE  $98B1
 98CC  CA        DEX  
 98CD  CA        DEX  
 98CE  CA        DEX  
 98CF  CA        DEX  
 98D0  74 00     STZ  $00, X
 98D2  74 01     STZ  $01, X
 98D4  4C 83 99  JMP  $9983
 98D7  A5 26     LDA  $26
 98D9  38        SEC  
 98DA  E5 08     SBC  $08
 98DC  85 0C     STA  $0C
 98DE  A5 27     LDA  $27
 98E0  E5 09     SBC  $09
 98E2  85 0D     STA  $0D
 98E4  CA        DEX  
 98E5  CA        DEX  
 98E6  A9 20     LDA  #$20
 98E8  95 00     STA  $00, X
 98EA  74 01     STZ  $01, X
 98EC  20 1B D6  JSR  $D61B
 98EF  A5 0A     LDA  $0A
 98F1  05 0B     ORA  $0B
 98F3  F0 0C     BEQ  $9901
 98F5  A5 0D     LDA  $0D
 98F7  C5 0B     CMP  $0B
 98F9  90 0E     BCC  $9909
 98FB  A5 0C     LDA  $0C
 98FD  C5 0A     CMP  $0A
 98FF  90 08     BCC  $9909
 9901  CA        DEX  
 9902  CA        DEX  
 9903  74 00     STZ  $00, X
 9905  74 01     STZ  $01, X
 9907  80 7A     BRA  $9983
 9909  B5 00     LDA  $00, X
 990B  85 2C     STA  $2C
 990D  CA        DEX  
 990E  CA        DEX  
 990F  A5 08     LDA  $08
 9911  18        CLC  
 9912  65 0C     ADC  $0C
 9914  85 24     STA  $24
 9916  85 26     STA  $26
 9918  95 02     STA  $02, X
 991A  A5 09     LDA  $09
 991C  65 0D     ADC  $0D
 991E  85 25     STA  $25
 9920  85 27     STA  $27
 9922  95 03     STA  $03, X
 9924  A5 08     LDA  $08
 9926  18        CLC  
 9927  65 0A     ADC  $0A
 9929  85 28     STA  $28
 992B  A5 09     LDA  $09
 992D  65 0B     ADC  $0B
 992F  85 29     STA  $29
 9931  64 2D     STZ  $2D
 9933  A5 26     LDA  $26
 9935  C5 28     CMP  $28
 9937  D0 06     BNE  $993F
 9939  A5 27     LDA  $27
 993B  C5 29     CMP  $29
 993D  F0 1D     BEQ  $995C
 993F  B2 26     LDA  ($26)
 9941  A4 2C     LDY  $2C
 9943  C0 20     CPY  #$20
 9945  D0 07     BNE  $994E
 9947  20 0E D6  JSR  $D60E
 994A  90 02     BCC  $994E
 994C  80 0C     BRA  $995A
 994E  C5 2C     CMP  $2C
 9950  F0 08     BEQ  $995A
 9952  E6 26     INC  $26
 9954  D0 DD     BNE  $9933
 9956  E6 27     INC  $27
 9958  80 D9     BRA  $9933
 995A  E6 2D     INC  $2D
 995C  A5 26     LDA  $26
 995E  38        SEC  
 995F  E5 24     SBC  $24
 9961  95 00     STA  $00, X
 9963  A5 27     LDA  $27
 9965  E5 25     SBC  $25
 9967  95 01     STA  $01, X
 9969  A5 26     LDA  $26
 996B  38        SEC  
 996C  E5 08     SBC  $08
 996E  85 0C     STA  $0C
 9970  A5 27     LDA  $27
 9972  E5 09     SBC  $09
 9974  85 0D     STA  $0D
 9976  A5 0C     LDA  $0C
 9978  18        CLC  
 9979  65 2D     ADC  $2D
 997B  85 0C     STA  $0C
 997D  A5 0D     LDA  $0D
 997F  69 00     ADC  #$00
 9981  85 0D     STA  $0D
 9983  60        RTS  
 9984  16 00     ASL  $00, X
 9986  8A        TXA  
 9987  75 00     ADC  $00, X
 9989  A8        TAY  
 998A  B9 02 00  LDA  $0002, Y
 998D  95 00     STA  $00, X
 998F  B9 03 00  LDA  $0003, Y
 9992  95 01     STA  $01, X
 9994  60        RTS  
 9995  20 20 D6  JSR  $D620
 9998  18        CLC  
 9999  B5 00     LDA  $00, X
 999B  75 02     ADC  $02, X
 999D  95 02     STA  $02, X
 999F  B5 01     LDA  $01, X
 99A1  75 03     ADC  $03, X
 99A3  95 03     STA  $03, X
 99A5  E8        INX  
 99A6  E8        INX  
 99A7  60        RTS  
 99A8  20 20 D6  JSR  $D620
 99AB  B5 00     LDA  $00, X
 99AD  85 24     STA  $24
 99AF  B5 01     LDA  $01, X
 99B1  85 25     STA  $25
 99B3  A0 00     LDY  #$00
 99B5  B1 24     LDA  ($24), Y
 99B7  18        CLC  
 99B8  75 02     ADC  $02, X
 99BA  91 24     STA  ($24), Y
 99BC  C8        INY  
 99BD  B1 24     LDA  ($24), Y
 99BF  75 03     ADC  $03, X
 99C1  91 24     STA  ($24), Y
 99C3  E8        INX  
 99C4  E8        INX  
 99C5  E8        INX  
 99C6  E8        INX  
 99C7  60        RTS  
 99C8  20 91 98  JSR  $9891
 99CB  B5 00     LDA  $00, X
 99CD  15 01     ORA  $01, X
 99CF  D0 05     BNE  $99D6
 99D1  A9 05     LDA  #$05
 99D3  4C 31 D6  JMP  $D631
 99D6  20 FB 8F  JSR  $8FFB
 99D9  D0 05     BNE  $99E0
 99DB  A9 05     LDA  #$05
 99DD  4C 31 D6  JMP  $D631
 99E0  B5 00     LDA  $00, X
 99E2  85 24     STA  $24
 99E4  B5 01     LDA  $01, X
 99E6  85 25     STA  $25
 99E8  20 01 96  JSR  $9601
 99EB  E6 24     INC  $24
 99ED  D0 02     BNE  $99F1
 99EF  E6 25     INC  $25
 99F1  B2 24     LDA  ($24)
 99F3  29 04     AND  #$04
 99F5  F0 05     BEQ  $99FC
 99F7  20 0D 88  JSR  $880D
 99FA  80 0A     BRA  $9A06
 99FC  20 AA 93  JSR  $93AA
 99FF  A0 88     LDY  #$88
 9A01  A9 0D     LDA  #$0D
 9A03  20 BE D4  JSR  $D4BE
 9A06  60        RTS  
 9A07  20 54 91  JSR  $9154
 9A0A  20 62 96  JSR  $9662
 9A0D  20 C3 97  JSR  $97C3
 9A10  20 CD 9C  JSR  $9CCD
 9A13  60        RTS  
 9A14  20 A0 8F  JSR  $8FA0
 9A17  20 56 8C  JSR  $8C56
 9A1A  60        RTS  
 9A1B  20 1B D6  JSR  $D61B
 9A1E  B5 00     LDA  $00, X
 9A20  15 01     ORA  $01, X
 9A22  F0 0A     BEQ  $9A2E
 9A24  CA        DEX  
 9A25  CA        DEX  
 9A26  B5 02     LDA  $02, X
 9A28  95 00     STA  $00, X
 9A2A  B5 03     LDA  $03, X
 9A2C  95 01     STA  $01, X
 9A2E  60        RTS  
 9A2F  7A        PLY  
 9A30  84 24     STY  $24
 9A32  7A        PLY  
 9A33  CA        DEX  
 9A34  CA        DEX  
 9A35  68        PLA  
 9A36  95 00     STA  $00, X
 9A38  68        PLA  
 9A39  95 01     STA  $01, X
 9A3B  48        PHA  
 9A3C  B5 00     LDA  $00, X
 9A3E  48        PHA  
 9A3F  5A        PHY  
 9A40  A4 24     LDY  $24
 9A42  5A        PHY  
 9A43  60        RTS  
 9A44  68        PLA  
 9A45  85 2C     STA  $2C
 9A47  7A        PLY  
 9A48  CA        DEX  
 9A49  CA        DEX  
 9A4A  68        PLA  
 9A4B  95 00     STA  $00, X
 9A4D  68        PLA  
 9A4E  95 01     STA  $01, X
 9A50  5A        PHY  
 9A51  A5 2C     LDA  $2C
 9A53  48        PHA  
 9A54  60        RTS  
 9A55  68        PLA  
 9A56  85 24     STA  $24
 9A58  68        PLA  
 9A59  85 25     STA  $25
 9A5B  A0 00     LDY  #$00
 9A5D  68        PLA  
 9A5E  99 06 00  STA  $0006, Y
 9A61  C8        INY  
 9A62  C0 08     CPY  #$08
 9A64  D0 F7     BNE  $9A5D
 9A66  A5 25     LDA  $25
 9A68  48        PHA  
 9A69  A5 24     LDA  $24
 9A6B  48        PHA  
 9A6C  60        RTS  
 9A6D  A0 00     LDY  #$00
 9A6F  A9 20     LDA  #$20
 9A71  91 00     STA  ($00), Y
 9A73  C8        INY  
 9A74  24 20     BIT  $20
 9A76  70 0C     BVS  $9A84
 9A78  A5 04     LDA  $04
 9A7A  91 00     STA  ($00), Y
 9A7C  C8        INY  
 9A7D  A5 05     LDA  $05
 9A7F  91 00     STA  ($00), Y
 9A81  C8        INY  
 9A82  80 1B     BRA  $9A9F
 9A84  A5 04     LDA  $04
 9A86  18        CLC  
 9A87  69 04     ADC  #$04
 9A89  85 24     STA  $24
 9A8B  A5 05     LDA  $05
 9A8D  69 00     ADC  #$00
 9A8F  85 25     STA  $25
 9A91  B2 24     LDA  ($24)
 9A93  91 00     STA  ($00), Y
 9A95  5A        PHY  
 9A96  A0 01     LDY  #$01
 9A98  B1 24     LDA  ($24), Y
 9A9A  7A        PLY  
 9A9B  C8        INY  
 9A9C  91 00     STA  ($00), Y
 9A9E  C8        INY  
 9A9F  98        TYA  
 9AA0  18        CLC  
 9AA1  65 00     ADC  $00
 9AA3  85 00     STA  $00
 9AA5  90 02     BCC  $9AA9
 9AA7  E6 01     INC  $01
 9AA9  60        RTS  
 9AAA  A5 06     LDA  $06
 9AAC  D0 2D     BNE  $9ADB
 9AAE  CA        DEX  
 9AAF  CA        DEX  
 9AB0  CA        DEX  
 9AB1  CA        DEX  
 9AB2  A5 08     LDA  $08
 9AB4  95 02     STA  $02, X
 9AB6  A5 09     LDA  $09
 9AB8  95 03     STA  $03, X
 9ABA  64 0A     STZ  $0A
 9ABC  64 0B     STZ  $0B
 9ABE  A9 FF     LDA  #$FF
 9AC0  95 00     STA  $00, X
 9AC2  74 01     STZ  $01, X
 9AC4  20 7E 81  JSR  $817E
 9AC7  B5 00     LDA  $00, X
 9AC9  85 0A     STA  $0A
 9ACB  B5 01     LDA  $01, X
 9ACD  85 0B     STA  $0B
 9ACF  64 0C     STZ  $0C
 9AD1  64 0D     STZ  $0D
 9AD3  A9 FF     LDA  #$FF
 9AD5  95 00     STA  $00, X
 9AD7  95 01     STA  $01, X
 9AD9  80 10     BRA  $9AEB
 9ADB  1A        INC  
 9ADC  D0 08     BNE  $9AE6
 9ADE  CA        DEX  
 9ADF  CA        DEX  
 9AE0  74 00     STZ  $00, X
 9AE2  74 01     STZ  $01, X
 9AE4  80 05     BRA  $9AEB
 9AE6  A9 01     LDA  #$01
 9AE8  4C 31 D6  JMP  $D631
 9AEB  60        RTS  
 9AEC  20 B9 82  JSR  $82B9
 9AEF  20 92 91  JSR  $9192
 9AF2  20 5A A1  JSR  $A15A
 9AF5  20 39 A1  JSR  $A139
 9AF8  60        RTS  
 9AF9  A9 FF     LDA  #$FF
 9AFB  85 16     STA  $16
 9AFD  85 17     STA  $17
 9AFF  60        RTS  
 9B00  CA        DEX  
 9B01  CA        DEX  
 9B02  A9 03     LDA  #$03
 9B04  95 00     STA  $00, X
 9B06  74 01     STZ  $01, X
 9B08  60        RTS  
 9B09  20 25 D6  JSR  $D625
 9B0C  B4 05     LDY  $05, X
 9B0E  B5 03     LDA  $03, X
 9B10  95 05     STA  $05, X
 9B12  B5 01     LDA  $01, X
 9B14  95 03     STA  $03, X
 9B16  94 01     STY  $01, X
 9B18  B4 04     LDY  $04, X
 9B1A  B5 02     LDA  $02, X
 9B1C  95 04     STA  $04, X
 9B1E  B5 00     LDA  $00, X
 9B20  95 02     STA  $02, X
 9B22  94 00     STY  $00, X
 9B24  60        RTS  
 9B25  20 20 D6  JSR  $D620
 9B28  B5 00     LDA  $00, X
 9B2A  29 0F     AND  #$0F
 9B2C  F0 08     BEQ  $9B36
 9B2E  A8        TAY  
 9B2F  56 03     LSR  $03, X
 9B31  76 02     ROR  $02, X
 9B33  88        DEY  
 9B34  D0 F9     BNE  $9B2F
 9B36  E8        INX  
 9B37  E8        INX  
 9B38  60        RTS  
 9B39  A9 FF     LDA  #$FF
 9B3B  85 26     STA  $26
 9B3D  64 27     STZ  $27
 9B3F  20 05 9D  JSR  $9D05
 9B42  60        RTS  
 9B43  C9 41     CMP  #$41
 9B45  90 07     BCC  $9B4E
 9B47  29 DF     AND  #$DF
 9B49  38        SEC  
 9B4A  E9 37     SBC  #$37
 9B4C  80 03     BRA  $9B51
 9B4E  38        SEC  
 9B4F  E9 30     SBC  #$30
 9B51  60        RTS  
 9B52  20 25 D6  JSR  $D625
 9B55  A5 1E     LDA  $1E
 9B57  18        CLC  
 9B58  69 06     ADC  #$06
 9B5A  85 26     STA  $26
 9B5C  A5 1F     LDA  $1F
 9B5E  69 00     ADC  #$00
 9B60  85 27     STA  $27
 9B62  B5 00     LDA  $00, X
 9B64  0A        ASL  
 9B65  65 26     ADC  $26
 9B67  85 26     STA  $26
 9B69  90 02     BCC  $9B6D
 9B6B  E6 27     INC  $27
 9B6D  E8        INX  
 9B6E  E8        INX  
 9B6F  B5 00     LDA  $00, X
 9B71  15 01     ORA  $01, X
 9B73  D0 03     BNE  $9B78
 9B75  4C 30 9C  JMP  $9C30
 9B78  A5 26     LDA  $26
 9B7A  05 27     ORA  $27
 9B7C  D0 03     BNE  $9B81
 9B7E  4C 30 9C  JMP  $9C30
 9B81  B2 26     LDA  ($26)
 9B83  85 24     STA  $24
 9B85  E6 26     INC  $26
 9B87  D0 02     BNE  $9B8B
 9B89  E6 27     INC  $27
 9B8B  B2 26     LDA  ($26)
 9B8D  85 25     STA  $25
 9B8F  B5 02     LDA  $02, X
 9B91  85 26     STA  $26
 9B93  B5 03     LDA  $03, X
 9B95  85 27     STA  $27
 9B97  B2 24     LDA  ($24)
 9B99  D5 00     CMP  $00, X
 9B9B  D0 7B     BNE  $9C18
 9B9D  B2 26     LDA  ($26)
 9B9F  C9 5B     CMP  #$5B
 9BA1  B0 07     BCS  $9BAA
 9BA3  C9 41     CMP  #$41
 9BA5  90 03     BCC  $9BAA
 9BA7  18        CLC  
 9BA8  69 20     ADC  #$20
 9BAA  A0 08     LDY  #$08
 9BAC  D1 24     CMP  ($24), Y
 9BAE  D0 68     BNE  $9C18
 9BB0  B5 00     LDA  $00, X
 9BB2  3A        DEC  
 9BB3  F0 2C     BEQ  $9BE1
 9BB5  A5 24     LDA  $24
 9BB7  48        PHA  
 9BB8  18        CLC  
 9BB9  69 08     ADC  #$08
 9BBB  85 24     STA  $24
 9BBD  A5 25     LDA  $25
 9BBF  48        PHA  
 9BC0  69 00     ADC  #$00
 9BC2  85 25     STA  $25
 9BC4  B4 00     LDY  $00, X
 9BC6  88        DEY  
 9BC7  B1 26     LDA  ($26), Y
 9BC9  C9 5B     CMP  #$5B
 9BCB  B0 07     BCS  $9BD4
 9BCD  C9 41     CMP  #$41
 9BCF  90 03     BCC  $9BD4
 9BD1  18        CLC  
 9BD2  69 20     ADC  #$20
 9BD4  D1 24     CMP  ($24), Y
 9BD6  D0 3A     BNE  $9C12
 9BD8  88        DEY  
 9BD9  D0 EC     BNE  $9BC7
 9BDB  68        PLA  
 9BDC  85 25     STA  $25
 9BDE  68        PLA  
 9BDF  85 24     STA  $24
 9BE1  E8        INX  
 9BE2  E8        INX  
 9BE3  A5 24     LDA  $24
 9BE5  95 00     STA  $00, X
 9BE7  A5 25     LDA  $25
 9BE9  95 01     STA  $01, X
 9BEB  20 CF 8D  JSR  $8DCF
 9BEE  20 01 96  JSR  $9601
 9BF1  20 5A A1  JSR  $A15A
 9BF4  A0 00     LDY  #$00
 9BF6  F6 00     INC  $00, X
 9BF8  D0 02     BNE  $9BFC
 9BFA  F6 01     INC  $01, X
 9BFC  A1 00     LDA  ($00, X)
 9BFE  29 04     AND  #$04
 9C00  D0 08     BNE  $9C0A
 9C02  A9 FF     LDA  #$FF
 9C04  95 00     STA  $00, X
 9C06  95 01     STA  $01, X
 9C08  80 28     BRA  $9C32
 9C0A  A9 01     LDA  #$01
 9C0C  95 00     STA  $00, X
 9C0E  74 01     STZ  $01, X
 9C10  80 20     BRA  $9C32
 9C12  68        PLA  
 9C13  85 25     STA  $25
 9C15  68        PLA  
 9C16  85 24     STA  $24
 9C18  A0 02     LDY  #$02
 9C1A  B1 24     LDA  ($24), Y
 9C1C  48        PHA  
 9C1D  C8        INY  
 9C1E  B1 24     LDA  ($24), Y
 9C20  85 25     STA  $25
 9C22  68        PLA  
 9C23  85 24     STA  $24
 9C25  05 25     ORA  $25
 9C27  F0 03     BEQ  $9C2C
 9C29  4C 97 9B  JMP  $9B97
 9C2C  74 02     STZ  $02, X
 9C2E  74 03     STZ  $03, X
 9C30  E8        INX  
 9C31  E8        INX  
 9C32  60        RTS  
 9C33  20 91 98  JSR  $9891
 9C36  20 FB 8F  JSR  $8FFB
 9C39  B5 00     LDA  $00, X
 9C3B  15 01     ORA  $01, X
 9C3D  D0 05     BNE  $9C44
 9C3F  A9 05     LDA  #$05
 9C41  4C 31 D6  JMP  $D631
 9C44  20 83 89  JSR  $8983
 9C47  A5 18     LDA  $18
 9C49  48        PHA  
 9C4A  20 9D 91  JSR  $919D
 9C4D  A9 0A     LDA  #$0A
 9C4F  20 47 D6  JSR  $D647
 9C52  20 CF 8D  JSR  $8DCF
 9C55  20 DA A4  JSR  $A4DA
 9C58  20 D0 A0  JSR  $A0D0
 9C5B  20 CF 8D  JSR  $8DCF
 9C5E  20 01 96  JSR  $9601
 9C61  A9 0B     LDA  #$0B
 9C63  20 47 D6  JSR  $D647
 9C66  20 CF 8D  JSR  $8DCF
 9C69  20 DA A4  JSR  $A4DA
 9C6C  20 83 89  JSR  $8983
 9C6F  A9 09     LDA  #$09
 9C71  20 47 D6  JSR  $D647
 9C74  20 45 98  JSR  $9845
 9C77  20 CF 97  JSR  $97CF
 9C7A  20 A0 8F  JSR  $8FA0
 9C7D  B5 00     LDA  $00, X
 9C7F  A0 06     LDY  #$06
 9C81  48        PHA  
 9C82  29 01     AND  #$01
 9C84  18        CLC  
 9C85  69 30     ADC  #$30
 9C87  20 16 8E  JSR  $8E16
 9C8A  20 D0 A0  JSR  $A0D0
 9C8D  68        PLA  
 9C8E  6A        ROR  
 9C8F  88        DEY  
 9C90  D0 EF     BNE  $9C81
 9C92  20 83 89  JSR  $8983
 9C95  E8        INX  
 9C96  E8        INX  
 9C97  A9 0C     LDA  #$0C
 9C99  20 47 D6  JSR  $D647
 9C9C  20 5A A1  JSR  $A15A
 9C9F  20 20 A7  JSR  $A720
 9CA2  20 CF 8D  JSR  $8DCF
 9CA5  20 C5 8A  JSR  $8AC5
 9CA8  20 DA A4  JSR  $A4DA
 9CAB  20 9D 91  JSR  $919D
 9CAE  20 83 89  JSR  $8983
 9CB1  20 64 A3  JSR  $A364
 9CB4  20 54 8D  JSR  $8D54
 9CB7  20 83 89  JSR  $8983
 9CBA  20 5A 8B  JSR  $8B5A
 9CBD  68        PLA  
 9CBE  85 18     STA  $18
 9CC0  60        RTS  
 9CC1  20 1B D6  JSR  $D61B
 9CC4  A0 04     LDY  #$04
 9CC6  B5 00     LDA  $00, X
 9CC8  91 1E     STA  ($1E), Y
 9CCA  E8        INX  
 9CCB  E8        INX  
 9CCC  60        RTS  
 9CCD  A9 FF     LDA  #$FF
 9CCF  D5 01     CMP  $01, X
 9CD1  D0 12     BNE  $9CE5
 9CD3  D5 00     CMP  $00, X
 9CD5  D0 0E     BNE  $9CE5
 9CD7  CA        DEX  
 9CD8  CA        DEX  
 9CD9  74 03     STZ  $03, X
 9CDB  A9 03     LDA  #$03
 9CDD  95 02     STA  $02, X
 9CDF  74 01     STZ  $01, X
 9CE1  A9 01     LDA  #$01
 9CE3  95 00     STA  $00, X
 9CE5  A0 1E     LDY  #$1E
 9CE7  B5 00     LDA  $00, X
 9CE9  91 1E     STA  ($1E), Y
 9CEB  85 24     STA  $24
 9CED  E8        INX  
 9CEE  E8        INX  
 9CEF  A5 24     LDA  $24
 9CF1  F0 0D     BEQ  $9D00
 9CF3  A0 1F     LDY  #$1F
 9CF5  B5 00     LDA  $00, X
 9CF7  91 1E     STA  ($1E), Y
 9CF9  C8        INY  
 9CFA  E8        INX  
 9CFB  E8        INX  
 9CFC  C6 24     DEC  $24
 9CFE  D0 F5     BNE  $9CF5
 9D00  60        RTS  
 9D01  64 26     STZ  $26
 9D03  64 27     STZ  $27
 9D05  CA        DEX  
 9D06  CA        DEX  
 9D07  CA        DEX  
 9D08  CA        DEX  
 9D09  A9 4C     LDA  #$4C
 9D0B  20 CE D4  JSR  $D4CE
 9D0E  20 CE D4  JSR  $D4CE
 9D11  20 CE D4  JSR  $D4CE
 9D14  A5 00     LDA  $00
 9D16  95 02     STA  $02, X
 9D18  A5 01     LDA  $01
 9D1A  95 03     STA  $03, X
 9D1C  A5 0D     LDA  $0D
 9D1E  C5 0B     CMP  $0B
 9D20  90 2A     BCC  $9D4C
 9D22  A5 0C     LDA  $0C
 9D24  C5 0A     CMP  $0A
 9D26  90 24     BCC  $9D4C
 9D28  A5 26     LDA  $26
 9D2A  48        PHA  
 9D2B  A5 27     LDA  $27
 9D2D  48        PHA  
 9D2E  A5 28     LDA  $28
 9D30  48        PHA  
 9D31  20 AA 9A  JSR  $9AAA
 9D34  68        PLA  
 9D35  85 28     STA  $28
 9D37  68        PLA  
 9D38  85 27     STA  $27
 9D3A  68        PLA  
 9D3B  85 26     STA  $26
 9D3D  B5 00     LDA  $00, X
 9D3F  15 01     ORA  $01, X
 9D41  D0 05     BNE  $9D48
 9D43  A9 06     LDA  #$06
 9D45  4C 31 D6  JMP  $D631
 9D48  E8        INX  
 9D49  E8        INX  
 9D4A  80 D0     BRA  $9D1C
 9D4C  A5 08     LDA  $08
 9D4E  18        CLC  
 9D4F  65 0C     ADC  $0C
 9D51  85 24     STA  $24
 9D53  A5 09     LDA  $09
 9D55  65 0D     ADC  $0D
 9D57  85 25     STA  $25
 9D59  B2 24     LDA  ($24)
 9D5B  24 26     BIT  $26
 9D5D  30 03     BMI  $9D62
 9D5F  4C 1A 9E  JMP  $9E1A
 9D62  24 27     BIT  $27
 9D64  30 03     BMI  $9D69
 9D66  4C 10 9E  JMP  $9E10
 9D69  70 22     BVS  $9D8D
 9D6B  A9 01     LDA  #$01
 9D6D  24 27     BIT  $27
 9D6F  D0 10     BNE  $9D81
 9D71  E6 27     INC  $27
 9D73  B2 24     LDA  ($24)
 9D75  20 43 9B  JSR  $9B43
 9D78  0A        ASL  
 9D79  0A        ASL  
 9D7A  0A        ASL  
 9D7B  0A        ASL  
 9D7C  85 28     STA  $28
 9D7E  4C 21 9E  JMP  $9E21
 9D81  64 27     STZ  $27
 9D83  B2 24     LDA  ($24)
 9D85  20 43 9B  JSR  $9B43
 9D88  05 28     ORA  $28
 9D8A  4C 1E 9E  JMP  $9E1E
 9D8D  64 27     STZ  $27
 9D8F  C9 61     CMP  #$61
 9D91  D0 05     BNE  $9D98
 9D93  A9 07     LDA  #$07
 9D95  4C 1E 9E  JMP  $9E1E
 9D98  C9 62     CMP  #$62
 9D9A  D0 05     BNE  $9DA1
 9D9C  A9 08     LDA  #$08
 9D9E  4C 1E 9E  JMP  $9E1E
 9DA1  C9 65     CMP  #$65
 9DA3  D0 04     BNE  $9DA9
 9DA5  A9 1B     LDA  #$1B
 9DA7  80 75     BRA  $9E1E
 9DA9  C9 66     CMP  #$66
 9DAB  D0 04     BNE  $9DB1
 9DAD  A9 0C     LDA  #$0C
 9DAF  80 6D     BRA  $9E1E
 9DB1  C9 6C     CMP  #$6C
 9DB3  D0 04     BNE  $9DB9
 9DB5  A9 0A     LDA  #$0A
 9DB7  80 65     BRA  $9E1E
 9DB9  C9 6D     CMP  #$6D
 9DBB  D0 09     BNE  $9DC6
 9DBD  A9 0D     LDA  #$0D
 9DBF  20 CE D4  JSR  $D4CE
 9DC2  A9 0A     LDA  #$0A
 9DC4  80 58     BRA  $9E1E
 9DC6  C9 6E     CMP  #$6E
 9DC8  D0 04     BNE  $9DCE
 9DCA  A9 0A     LDA  #$0A
 9DCC  80 50     BRA  $9E1E
 9DCE  C9 71     CMP  #$71
 9DD0  D0 04     BNE  $9DD6
 9DD2  A9 22     LDA  #$22
 9DD4  80 48     BRA  $9E1E
 9DD6  C9 72     CMP  #$72
 9DD8  D0 04     BNE  $9DDE
 9DDA  A9 0D     LDA  #$0D
 9DDC  80 40     BRA  $9E1E
 9DDE  C9 74     CMP  #$74
 9DE0  D0 04     BNE  $9DE6
 9DE2  A9 09     LDA  #$09
 9DE4  80 38     BRA  $9E1E
 9DE6  C9 76     CMP  #$76
 9DE8  D0 04     BNE  $9DEE
 9DEA  A9 0B     LDA  #$0B
 9DEC  80 30     BRA  $9E1E
 9DEE  C9 7A     CMP  #$7A
 9DF0  D0 04     BNE  $9DF6
 9DF2  A9 00     LDA  #$00
 9DF4  80 28     BRA  $9E1E
 9DF6  C9 22     CMP  #$22
 9DF8  D0 04     BNE  $9DFE
 9DFA  A9 22     LDA  #$22
 9DFC  80 20     BRA  $9E1E
 9DFE  C9 78     CMP  #$78
 9E00  D0 06     BNE  $9E08
 9E02  A9 BE     LDA  #$BE
 9E04  85 27     STA  $27
 9E06  80 19     BRA  $9E21
 9E08  C9 5C     CMP  #$5C
 9E0A  D0 04     BNE  $9E10
 9E0C  A9 5C     LDA  #$5C
 9E0E  80 0E     BRA  $9E1E
 9E10  C9 5C     CMP  #$5C
 9E12  D0 06     BNE  $9E1A
 9E14  A9 FF     LDA  #$FF
 9E16  85 27     STA  $27
 9E18  80 07     BRA  $9E21
 9E1A  C9 22     CMP  #$22
 9E1C  F0 0C     BEQ  $9E2A
 9E1E  20 CE D4  JSR  $D4CE
 9E21  E6 0C     INC  $0C
 9E23  D0 02     BNE  $9E27
 9E25  E6 0D     INC  $0D
 9E27  4C 1C 9D  JMP  $9D1C
 9E2A  E6 0C     INC  $0C
 9E2C  D0 02     BNE  $9E30
 9E2E  E6 0D     INC  $0D
 9E30  A5 00     LDA  $00
 9E32  38        SEC  
 9E33  F5 02     SBC  $02, X
 9E35  95 00     STA  $00, X
 9E37  A5 01     LDA  $01
 9E39  F5 03     SBC  $03, X
 9E3B  95 01     STA  $01, X
 9E3D  B5 02     LDA  $02, X
 9E3F  38        SEC  
 9E40  E9 02     SBC  #$02
 9E42  85 24     STA  $24
 9E44  B5 03     LDA  $03, X
 9E46  E9 00     SBC  #$00
 9E48  85 25     STA  $25
 9E4A  A5 00     LDA  $00
 9E4C  92 24     STA  ($24)
 9E4E  A0 01     LDY  #$01
 9E50  A5 01     LDA  $01
 9E52  91 24     STA  ($24), Y
 9E54  A5 16     LDA  $16
 9E56  05 17     ORA  $17
 9E58  F0 03     BEQ  $9E5D
 9E5A  20 41 A0  JSR  $A041
 9E5D  60        RTS  
 9E5E  20 1B D6  JSR  $D61B
 9E61  CA        DEX  
 9E62  CA        DEX  
 9E63  74 00     STZ  $00, X
 9E65  74 01     STZ  $01, X
 9E67  B5 03     LDA  $03, X
 9E69  10 04     BPL  $9E6F
 9E6B  D6 00     DEC  $00, X
 9E6D  D6 01     DEC  $01, X
 9E6F  60        RTS  
 9E70  A0 2C     LDY  #$2C
 9E72  B1 1E     LDA  ($1E), Y
 9E74  C9 03     CMP  #$03
 9E76  D0 12     BNE  $9E8A
 9E78  20 D3 83  JSR  $83D3
 9E7B  20 C5 85  JSR  $85C5
 9E7E  20 A0 8F  JSR  $8FA0
 9E81  20 80 85  JSR  $8580
 9E84  A9 01     LDA  #$01
 9E86  A0 2C     LDY  #$2C
 9E88  91 1E     STA  ($1E), Y
 9E8A  60        RTS  
 9E8B  CA        DEX  
 9E8C  CA        DEX  
 9E8D  18        CLC  
 9E8E  A5 1E     LDA  $1E
 9E90  69 02     ADC  #$02
 9E92  95 00     STA  $00, X
 9E94  A5 1F     LDA  $1F
 9E96  69 00     ADC  #$00
 9E98  95 01     STA  $01, X
 9E9A  60        RTS  
 9E9B  20 2A D6  JSR  $D62A
 9E9E  B5 00     LDA  $00, X
 9EA0  15 01     ORA  $01, X
 9EA2  D0 0B     BNE  $9EAF
 9EA4  E8        INX  
 9EA5  E8        INX  
 9EA6  A9 FF     LDA  #$FF
 9EA8  95 00     STA  $00, X
 9EAA  95 01     STA  $01, X
 9EAC  4C 39 9F  JMP  $9F39
 9EAF  20 53 A7  JSR  $A753
 9EB2  18        CLC  
 9EB3  B5 00     LDA  $00, X
 9EB5  75 02     ADC  $02, X
 9EB7  85 24     STA  $24
 9EB9  B5 01     LDA  $01, X
 9EBB  75 03     ADC  $03, X
 9EBD  D5 07     CMP  $07, X
 9EBF  90 12     BCC  $9ED3
 9EC1  D0 06     BNE  $9EC9
 9EC3  B5 06     LDA  $06, X
 9EC5  C5 24     CMP  $24
 9EC7  B0 0A     BCS  $9ED3
 9EC9  E8        INX  
 9ECA  E8        INX  
 9ECB  E8        INX  
 9ECC  E8        INX  
 9ECD  74 00     STZ  $00, X
 9ECF  74 01     STZ  $01, X
 9ED1  80 66     BRA  $9F39
 9ED3  18        CLC  
 9ED4  B5 08     LDA  $08, X
 9ED6  75 00     ADC  $00, X
 9ED8  85 24     STA  $24
 9EDA  B5 09     LDA  $09, X
 9EDC  75 01     ADC  $01, X
 9EDE  85 25     STA  $25
 9EE0  B5 04     LDA  $04, X
 9EE2  85 26     STA  $26
 9EE4  B5 05     LDA  $05, X
 9EE6  85 27     STA  $27
 9EE8  B5 02     LDA  $02, X
 9EEA  85 28     STA  $28
 9EEC  B5 03     LDA  $03, X
 9EEE  85 29     STA  $29
 9EF0  B2 24     LDA  ($24)
 9EF2  D2 26     CMP  ($26)
 9EF4  F0 05     BEQ  $9EFB
 9EF6  20 CF 97  JSR  $97CF
 9EF9  80 B7     BRA  $9EB2
 9EFB  E6 24     INC  $24
 9EFD  D0 02     BNE  $9F01
 9EFF  E6 25     INC  $25
 9F01  E6 26     INC  $26
 9F03  D0 02     BNE  $9F07
 9F05  E6 27     INC  $27
 9F07  A5 28     LDA  $28
 9F09  D0 02     BNE  $9F0D
 9F0B  C6 29     DEC  $29
 9F0D  C6 28     DEC  $28
 9F0F  A5 28     LDA  $28
 9F11  05 29     ORA  $29
 9F13  D0 DB     BNE  $9EF0
 9F15  18        CLC  
 9F16  B5 00     LDA  $00, X
 9F18  75 08     ADC  $08, X
 9F1A  95 08     STA  $08, X
 9F1C  B5 01     LDA  $01, X
 9F1E  75 09     ADC  $09, X
 9F20  95 09     STA  $09, X
 9F22  38        SEC  
 9F23  B5 06     LDA  $06, X
 9F25  F5 00     SBC  $00, X
 9F27  95 06     STA  $06, X
 9F29  B5 07     LDA  $07, X
 9F2B  F5 01     SBC  $01, X
 9F2D  95 07     STA  $07, X
 9F2F  E8        INX  
 9F30  E8        INX  
 9F31  E8        INX  
 9F32  E8        INX  
 9F33  A9 FF     LDA  #$FF
 9F35  95 00     STA  $00, X
 9F37  95 01     STA  $01, X
 9F39  60        RTS  
 9F3A  24 20     BIT  $20
 9F3C  70 11     BVS  $9F4F
 9F3E  A9 60     LDA  #$60
 9F40  20 CE D4  JSR  $D4CE
 9F43  CA        DEX  
 9F44  CA        DEX  
 9F45  A5 04     LDA  $04
 9F47  95 00     STA  $00, X
 9F49  A5 05     LDA  $05
 9F4B  95 01     STA  $01, X
 9F4D  80 45     BRA  $9F94
 9F4F  A0 06     LDY  #$06
 9F51  A5 00     LDA  $00
 9F53  91 04     STA  ($04), Y
 9F55  C8        INY  
 9F56  A5 01     LDA  $01
 9F58  91 04     STA  ($04), Y
 9F5A  A9 60     LDA  #$60
 9F5C  20 CE D4  JSR  $D4CE
 9F5F  24 20     BIT  $20
 9F61  10 26     BPL  $9F89
 9F63  CA        DEX  
 9F64  CA        DEX  
 9F65  CA        DEX  
 9F66  CA        DEX  
 9F67  B2 04     LDA  ($04)
 9F69  95 00     STA  $00, X
 9F6B  74 01     STZ  $01, X
 9F6D  A5 04     LDA  $04
 9F6F  18        CLC  
 9F70  69 08     ADC  #$08
 9F72  95 02     STA  $02, X
 9F74  A5 05     LDA  $05
 9F76  69 00     ADC  #$00
 9F78  95 03     STA  $03, X
 9F7A  A9 02     LDA  #$02
 9F7C  20 47 D6  JSR  $D647
 9F7F  20 AF A4  JSR  $A4AF
 9F82  20 D0 A0  JSR  $A0D0
 9F85  A9 80     LDA  #$80
 9F87  14 20     TRB  $20
 9F89  A5 04     LDA  $04
 9F8B  85 02     STA  $02
 9F8D  A5 05     LDA  $05
 9F8F  85 03     STA  $03
 9F91  20 70 D5  JSR  $D570
 9F94  64 16     STZ  $16
 9F96  64 17     STZ  $17
 9F98  60        RTS  
 9F99  20 1B D6  JSR  $D61B
 9F9C  B5 01     LDA  $01, X
 9F9E  30 04     BMI  $9FA4
 9FA0  E8        INX  
 9FA1  E8        INX  
 9FA2  80 09     BRA  $9FAD
 9FA4  A9 2D     LDA  #$2D
 9FA6  95 00     STA  $00, X
 9FA8  74 01     STZ  $01, X
 9FAA  20 F7 91  JSR  $91F7
 9FAD  60        RTS  
 9FAE  A9 00     LDA  #$00
 9FB0  48        PHA  
 9FB1  80 03     BRA  $9FB6
 9FB3  A9 FF     LDA  #$FF
 9FB5  48        PHA  
 9FB6  20 1C A3  JSR  $A31C
 9FB9  20 5E 9E  JSR  $9E5E
 9FBC  20 44 9A  JSR  $9A44
 9FBF  20 87 A0  JSR  $A087
 9FC2  68        PLA  
 9FC3  D0 05     BNE  $9FCA
 9FC5  20 5A A1  JSR  $A15A
 9FC8  E8        INX  
 9FC9  E8        INX  
 9FCA  60        RTS  
 9FCB  20 25 D6  JSR  $D625
 9FCE  18        CLC  
 9FCF  B5 00     LDA  $00, X
 9FD1  75 04     ADC  $04, X
 9FD3  95 04     STA  $04, X
 9FD5  B5 01     LDA  $01, X
 9FD7  75 05     ADC  $05, X
 9FD9  95 05     STA  $05, X
 9FDB  38        SEC  
 9FDC  B5 02     LDA  $02, X
 9FDE  F5 00     SBC  $00, X
 9FE0  95 02     STA  $02, X
 9FE2  B5 03     LDA  $03, X
 9FE4  F5 01     SBC  $01, X
 9FE6  95 03     STA  $03, X
 9FE8  E8        INX  
 9FE9  E8        INX  
 9FEA  60        RTS  
 9FEB  20 20 D6  JSR  $D620
 9FEE  A9 4C     LDA  #$4C
 9FF0  20 CE D4  JSR  $D4CE
 9FF3  20 CE D4  JSR  $D4CE
 9FF6  20 CE D4  JSR  $D4CE
 9FF9  8A        TXA  
 9FFA  38        SEC  
 9FFB  E9 06     SBC  #$06
 9FFD  AA        TAX  
 9FFE  B5 08     LDA  $08, X
 A000  95 04     STA  $04, X
 A002  B5 09     LDA  $09, X
 A004  95 05     STA  $05, X
 A006  B5 06     LDA  $06, X
 A008  95 00     STA  $00, X
 A00A  B5 07     LDA  $07, X
 A00C  95 01     STA  $01, X
 A00E  A5 00     LDA  $00
 A010  95 08     STA  $08, X
 A012  95 02     STA  $02, X
 A014  A5 01     LDA  $01
 A016  95 09     STA  $09, X
 A018  95 03     STA  $03, X
 A01A  20 E2 95  JSR  $95E2
 A01D  18        CLC  
 A01E  A5 00     LDA  $00
 A020  75 00     ADC  $00, X
 A022  85 00     STA  $00
 A024  A5 01     LDA  $01
 A026  75 01     ADC  $01, X
 A028  85 01     STA  $01
 A02A  B5 02     LDA  $02, X
 A02C  38        SEC  
 A02D  E9 02     SBC  #$02
 A02F  85 24     STA  $24
 A031  B5 03     LDA  $03, X
 A033  E9 00     SBC  #$00
 A035  85 25     STA  $25
 A037  A5 00     LDA  $00
 A039  92 24     STA  ($24)
 A03B  A0 01     LDY  #$01
 A03D  A5 01     LDA  $01
 A03F  91 24     STA  ($24), Y
 A041  A0 A0     LDY  #$A0
 A043  A9 5B     LDA  #$5B
 A045  20 BE D4  JSR  $D4BE
 A048  B4 03     LDY  $03, X
 A04A  B5 02     LDA  $02, X
 A04C  20 CA D4  JSR  $D4CA
 A04F  B4 01     LDY  $01, X
 A051  B5 00     LDA  $00, X
 A053  20 CA D4  JSR  $D4CA
 A056  E8        INX  
 A057  E8        INX  
 A058  E8        INX  
 A059  E8        INX  
 A05A  60        RTS  
 A05B  CA        DEX  
 A05C  CA        DEX  
 A05D  CA        DEX  
 A05E  CA        DEX  
 A05F  68        PLA  
 A060  85 24     STA  $24
 A062  68        PLA  
 A063  85 25     STA  $25
 A065  A0 01     LDY  #$01
 A067  B1 24     LDA  ($24), Y
 A069  95 02     STA  $02, X
 A06B  C8        INY  
 A06C  B1 24     LDA  ($24), Y
 A06E  95 03     STA  $03, X
 A070  C8        INY  
 A071  B1 24     LDA  ($24), Y
 A073  95 00     STA  $00, X
 A075  C8        INY  
 A076  B1 24     LDA  ($24), Y
 A078  95 01     STA  $01, X
 A07A  18        CLC  
 A07B  A5 24     LDA  $24
 A07D  69 04     ADC  #$04
 A07F  A8        TAY  
 A080  A5 25     LDA  $25
 A082  69 00     ADC  #$00
 A084  48        PHA  
 A085  5A        PHY  
 A086  60        RTS  
 A087  20 25 D6  JSR  $D625
 A08A  B5 03     LDA  $03, X
 A08C  48        PHA  
 A08D  B5 01     LDA  $01, X
 A08F  55 03     EOR  $03, X
 A091  48        PHA  
 A092  20 69 81  JSR  $8169
 A095  E8        INX  
 A096  E8        INX  
 A097  20 A6 8A  JSR  $8AA6
 A09A  CA        DEX  
 A09B  CA        DEX  
 A09C  20 66 A5  JSR  $A566
 A09F  68        PLA  
 A0A0  10 03     BPL  $A0A5
 A0A2  20 43 96  JSR  $9643
 A0A5  68        PLA  
 A0A6  10 07     BPL  $A0AF
 A0A8  E8        INX  
 A0A9  E8        INX  
 A0AA  20 43 96  JSR  $9643
 A0AD  CA        DEX  
 A0AE  CA        DEX  
 A0AF  60        RTS  
 A0B0  CA        DEX  
 A0B1  CA        DEX  
 A0B2  A5 08     LDA  $08
 A0B4  95 00     STA  $00, X
 A0B6  A5 09     LDA  $09
 A0B8  95 01     STA  $01, X
 A0BA  CA        DEX  
 A0BB  CA        DEX  
 A0BC  A5 0A     LDA  $0A
 A0BE  95 00     STA  $00, X
 A0C0  A5 0B     LDA  $0B
 A0C2  95 01     STA  $01, X
 A0C4  60        RTS  
 A0C5  CA        DEX  
 A0C6  CA        DEX  
 A0C7  A5 06     LDA  $06
 A0C9  95 00     STA  $00, X
 A0CB  A5 07     LDA  $07
 A0CD  95 01     STA  $01, X
 A0CF  60        RTS  
 A0D0  A9 20     LDA  #$20
 A0D2  20 16 8E  JSR  $8E16
 A0D5  60        RTS  
 A0D6  20 1B D6  JSR  $D61B
 A0D9  B5 00     LDA  $00, X
 A0DB  15 01     ORA  $01, X
 A0DD  F0 2A     BEQ  $A109
 A0DF  B4 01     LDY  $01, X
 A0E1  D0 0C     BNE  $A0EF
 A0E3  B4 00     LDY  $00, X
 A0E5  A9 20     LDA  #$20
 A0E7  20 16 8E  JSR  $8E16
 A0EA  88        DEY  
 A0EB  F0 1C     BEQ  $A109
 A0ED  80 F6     BRA  $A0E5
 A0EF  B4 00     LDY  $00, X
 A0F1  F0 08     BEQ  $A0FB
 A0F3  A9 20     LDA  #$20
 A0F5  20 16 8E  JSR  $8E16
 A0F8  88        DEY  
 A0F9  80 F6     BRA  $A0F1
 A0FB  A0 00     LDY  #$00
 A0FD  A9 20     LDA  #$20
 A0FF  20 16 8E  JSR  $8E16
 A102  88        DEY  
 A103  D0 F8     BNE  $A0FD
 A105  D6 01     DEC  $01, X
 A107  D0 F2     BNE  $A0FB
 A109  E8        INX  
 A10A  E8        INX  
 A10B  60        RTS  
 A10C  20 20 D6  JSR  $D620
 A10F  20 A8 A5  JSR  $A5A8
 A112  E8        INX  
 A113  E8        INX  
 A114  60        RTS  
 A115  20 1E A1  JSR  $A11E
 A118  20 5A A1  JSR  $A15A
 A11B  E8        INX  
 A11C  E8        INX  
 A11D  60        RTS  
 A11E  20 25 D6  JSR  $D625
 A121  20 1C A3  JSR  $A31C
 A124  20 AE 94  JSR  $94AE
 A127  20 44 9A  JSR  $9A44
 A12A  20 87 A0  JSR  $A087
 A12D  60        RTS  
 A12E  CA        DEX  
 A12F  CA        DEX  
 A130  A9 16     LDA  #$16
 A132  95 00     STA  $00, X
 A134  A9 00     LDA  #$00
 A136  95 01     STA  $01, X
 A138  60        RTS  
 A139  20 20 D6  JSR  $D620
 A13C  B5 02     LDA  $02, X
 A13E  81 00     STA  ($00, X)
 A140  F6 00     INC  $00, X
 A142  D0 02     BNE  $A146
 A144  F6 01     INC  $01, X
 A146  B5 03     LDA  $03, X
 A148  81 00     STA  ($00, X)
 A14A  E8        INX  
 A14B  E8        INX  
 A14C  E8        INX  
 A14D  E8        INX  
 A14E  60        RTS  
 A14F  CA        DEX  
 A150  CA        DEX  
 A151  A9 1C     LDA  #$1C
 A153  95 00     STA  $00, X
 A155  A9 00     LDA  #$00
 A157  95 01     STA  $01, X
 A159  60        RTS  
 A15A  20 20 D6  JSR  $D620
 A15D  B5 00     LDA  $00, X
 A15F  B4 02     LDY  $02, X
 A161  95 02     STA  $02, X
 A163  94 00     STY  $00, X
 A165  B5 01     LDA  $01, X
 A167  B4 03     LDY  $03, X
 A169  95 03     STA  $03, X
 A16B  94 01     STY  $01, X
 A16D  60        RTS  
 A16E  20 92 91  JSR  $9192
 A171  20 5A A1  JSR  $A15A
 A174  20 39 A1  JSR  $A139
 A177  60        RTS  
 A178  20 20 D6  JSR  $D620
 A17B  B5 01     LDA  $01, X
 A17D  48        PHA  
 A17E  B5 00     LDA  $00, X
 A180  48        PHA  
 A181  E8        INX  
 A182  E8        INX  
 A183  B5 01     LDA  $01, X
 A185  48        PHA  
 A186  B5 00     LDA  $00, X
 A188  48        PHA  
 A189  20 D7 93  JSR  $93D7
 A18C  68        PLA  
 A18D  85 24     STA  $24
 A18F  68        PLA  
 A190  85 25     STA  $25
 A192  68        PLA  
 A193  85 26     STA  $26
 A195  68        PLA  
 A196  85 27     STA  $27
 A198  C5 25     CMP  $25
 A19A  D0 08     BNE  $A1A4
 A19C  A5 26     LDA  $26
 A19E  C5 24     CMP  $24
 A1A0  D0 02     BNE  $A1A4
 A1A2  80 18     BRA  $A1BC
 A1A4  A5 27     LDA  $27
 A1A6  48        PHA  
 A1A7  A5 26     LDA  $26
 A1A9  48        PHA  
 A1AA  E6 24     INC  $24
 A1AC  D0 02     BNE  $A1B0
 A1AE  E6 25     INC  $25
 A1B0  CA        DEX  
 A1B1  CA        DEX  
 A1B2  A5 24     LDA  $24
 A1B4  95 00     STA  $00, X
 A1B6  A5 25     LDA  $25
 A1B8  95 01     STA  $01, X
 A1BA  80 C7     BRA  $A183
 A1BC  60        RTS  
 A1BD  20 91 98  JSR  $9891
 A1C0  B5 00     LDA  $00, X
 A1C2  15 01     ORA  $01, X
 A1C4  D0 05     BNE  $A1CB
 A1C6  A9 05     LDA  #$05
 A1C8  4C 31 D6  JMP  $D631
 A1CB  20 FB 8F  JSR  $8FFB
 A1CE  B5 00     LDA  $00, X
 A1D0  15 01     ORA  $01, X
 A1D2  D0 05     BNE  $A1D9
 A1D4  A9 08     LDA  #$08
 A1D6  4C 31 D6  JMP  $D631
 A1D9  20 01 96  JSR  $9601
 A1DC  60        RTS  
 A1DD  20 BD A1  JSR  $A1BD
 A1E0  B5 00     LDA  $00, X
 A1E2  18        CLC  
 A1E3  69 03     ADC  #$03
 A1E5  85 24     STA  $24
 A1E7  B5 01     LDA  $01, X
 A1E9  69 00     ADC  #$00
 A1EB  85 25     STA  $25
 A1ED  E8        INX  
 A1EE  E8        INX  
 A1EF  A5 16     LDA  $16
 A1F1  05 17     ORA  $17
 A1F3  F0 34     BEQ  $A229
 A1F5  A0 00     LDY  #$00
 A1F7  A9 B5     LDA  #$B5
 A1F9  20 CA D4  JSR  $D4CA
 A1FC  A9 8D     LDA  #$8D
 A1FE  20 CE D4  JSR  $D4CE
 A201  A4 25     LDY  $25
 A203  A5 24     LDA  $24
 A205  20 CA D4  JSR  $D4CA
 A208  A0 01     LDY  #$01
 A20A  A9 B5     LDA  #$B5
 A20C  20 CA D4  JSR  $D4CA
 A20F  A9 8D     LDA  #$8D
 A211  20 CE D4  JSR  $D4CE
 A214  E6 24     INC  $24
 A216  D0 02     BNE  $A21A
 A218  E6 25     INC  $25
 A21A  A4 25     LDY  $25
 A21C  A5 24     LDA  $24
 A21E  20 CA D4  JSR  $D4CA
 A221  A0 E8     LDY  #$E8
 A223  98        TYA  
 A224  20 CA D4  JSR  $D4CA
 A227  80 0F     BRA  $A238
 A229  20 1B D6  JSR  $D61B
 A22C  B5 00     LDA  $00, X
 A22E  92 24     STA  ($24)
 A230  A0 01     LDY  #$01
 A232  B5 01     LDA  $01, X
 A234  91 24     STA  ($24), Y
 A236  E8        INX  
 A237  E8        INX  
 A238  60        RTS  
 A239  20 1B D6  JSR  $D61B
 A23C  20 CF 8D  JSR  $8DCF
 A23F  20 98 92  JSR  $9298
 A242  F6 00     INC  $00, X
 A244  D0 02     BNE  $A248
 A246  F6 01     INC  $01, X
 A248  A1 00     LDA  ($00, X)
 A24A  29 20     AND  #$20
 A24C  F0 0D     BEQ  $A25B
 A24E  18        CLC  
 A24F  B5 02     LDA  $02, X
 A251  69 03     ADC  #$03
 A253  95 02     STA  $02, X
 A255  B5 03     LDA  $03, X
 A257  69 00     ADC  #$00
 A259  95 03     STA  $03, X
 A25B  E8        INX  
 A25C  E8        INX  
 A25D  60        RTS  
 A25E  CA        DEX  
 A25F  CA        DEX  
 A260  A9 0C     LDA  #$0C
 A262  95 00     STA  $00, X
 A264  A9 00     LDA  #$00
 A266  95 01     STA  $01, X
 A268  60        RTS  
 A269  20 2A D6  JSR  $D62A
 A26C  B5 06     LDA  $06, X
 A26E  85 36     STA  $36
 A270  B5 07     LDA  $07, X
 A272  85 37     STA  $37
 A274  B5 04     LDA  $04, X
 A276  85 38     STA  $38
 A278  B5 05     LDA  $05, X
 A27A  85 39     STA  $39
 A27C  CA        DEX  
 A27D  CA        DEX  
 A27E  A1 04     LDA  ($04, X)
 A280  95 00     STA  $00, X
 A282  74 01     STZ  $01, X
 A284  20 25 8B  JSR  $8B25
 A287  B5 00     LDA  $00, X
 A289  D0 04     BNE  $A28F
 A28B  E8        INX  
 A28C  E8        INX  
 A28D  80 67     BRA  $A2F6
 A28F  B5 02     LDA  $02, X
 A291  85 3A     STA  $3A
 A293  B5 03     LDA  $03, X
 A295  85 3B     STA  $3B
 A297  A5 38     LDA  $38
 A299  95 02     STA  $02, X
 A29B  A5 39     LDA  $39
 A29D  95 03     STA  $03, X
 A29F  A5 18     LDA  $18
 A2A1  95 00     STA  $00, X
 A2A3  74 01     STZ  $01, X
 A2A5  20 A8 A5  JSR  $A5A8
 A2A8  B5 02     LDA  $02, X
 A2AA  85 3C     STA  $3C
 A2AC  B5 03     LDA  $03, X
 A2AE  85 3D     STA  $3D
 A2B0  A5 36     LDA  $36
 A2B2  95 02     STA  $02, X
 A2B4  A5 37     LDA  $37
 A2B6  95 03     STA  $03, X
 A2B8  A5 18     LDA  $18
 A2BA  95 00     STA  $00, X
 A2BC  74 01     STZ  $01, X
 A2BE  20 A8 A5  JSR  $A5A8
 A2C1  B5 00     LDA  $00, X
 A2C3  85 38     STA  $38
 A2C5  B5 01     LDA  $01, X
 A2C7  85 39     STA  $39
 A2C9  B5 02     LDA  $02, X
 A2CB  85 36     STA  $36
 A2CD  B5 03     LDA  $03, X
 A2CF  85 37     STA  $37
 A2D1  18        CLC  
 A2D2  A5 36     LDA  $36
 A2D4  65 3A     ADC  $3A
 A2D6  85 36     STA  $36
 A2D8  A5 37     LDA  $37
 A2DA  65 3B     ADC  $3B
 A2DC  85 37     STA  $37
 A2DE  A5 38     LDA  $38
 A2E0  65 3C     ADC  $3C
 A2E2  85 38     STA  $38
 A2E4  A5 39     LDA  $39
 A2E6  65 3D     ADC  $3D
 A2E8  85 39     STA  $39
 A2EA  E8        INX  
 A2EB  E8        INX  
 A2EC  F6 04     INC  $04, X
 A2EE  D0 02     BNE  $A2F2
 A2F0  F6 05     INC  $05, X
 A2F2  D6 02     DEC  $02, X
 A2F4  D0 88     BNE  $A27E
 A2F6  E8        INX  
 A2F7  E8        INX  
 A2F8  A5 36     LDA  $36
 A2FA  95 06     STA  $06, X
 A2FC  A5 37     LDA  $37
 A2FE  95 07     STA  $07, X
 A300  A5 38     LDA  $38
 A302  95 04     STA  $04, X
 A304  A5 39     LDA  $39
 A306  95 05     STA  $05, X
 A308  60        RTS  
 A309  20 1C A3  JSR  $A31C
 A30C  20 54 91  JSR  $9154
 A30F  20 44 9A  JSR  $9A44
 A312  20 5A A1  JSR  $A15A
 A315  20 CF 97  JSR  $97CF
 A318  20 CD 9C  JSR  $9CCD
 A31B  60        RTS  
 A31C  68        PLA  
 A31D  85 2C     STA  $2C
 A31F  7A        PLY  
 A320  20 1B D6  JSR  $D61B
 A323  B5 01     LDA  $01, X
 A325  48        PHA  
 A326  B5 00     LDA  $00, X
 A328  48        PHA  
 A329  E8        INX  
 A32A  E8        INX  
 A32B  5A        PHY  
 A32C  A5 2C     LDA  $2C
 A32E  48        PHA  
 A32F  60        RTS  
 A330  CA        DEX  
 A331  CA        DEX  
 A332  A9 FF     LDA  #$FF
 A334  95 00     STA  $00, X
 A336  95 01     STA  $01, X
 A338  60        RTS  
 A339  20 20 D6  JSR  $D620
 A33C  CA        DEX  
 A33D  CA        DEX  
 A33E  B4 04     LDY  $04, X
 A340  B5 02     LDA  $02, X
 A342  95 04     STA  $04, X
 A344  94 02     STY  $02, X
 A346  95 00     STA  $00, X
 A348  B4 05     LDY  $05, X
 A34A  B5 03     LDA  $03, X
 A34C  95 05     STA  $05, X
 A34E  94 03     STY  $03, X
 A350  95 01     STA  $01, X
 A352  60        RTS  
 A353  CA        DEX  
 A354  CA        DEX  
 A355  A9 02     LDA  #$02
 A357  95 00     STA  $00, X
 A359  74 01     STZ  $01, X
 A35B  60        RTS  
 A35C  20 20 D6  JSR  $D620
 A35F  E8        INX  
 A360  E8        INX  
 A361  E8        INX  
 A362  E8        INX  
 A363  60        RTS  
 A364  20 20 D6  JSR  $D620
 A367  CA        DEX  
 A368  CA        DEX  
 A369  CA        DEX  
 A36A  CA        DEX  
 A36B  B5 04     LDA  $04, X
 A36D  95 00     STA  $00, X
 A36F  B5 05     LDA  $05, X
 A371  95 01     STA  $01, X
 A373  B5 06     LDA  $06, X
 A375  95 02     STA  $02, X
 A377  B5 07     LDA  $07, X
 A379  95 03     STA  $03, X
 A37B  60        RTS  
 A37C  20 1B D6  JSR  $D61B
 A37F  B5 00     LDA  $00, X
 A381  85 24     STA  $24
 A383  B4 01     LDY  $01, X
 A385  84 25     STY  $25
 A387  CA        DEX  
 A388  CA        DEX  
 A389  B2 24     LDA  ($24)
 A38B  95 00     STA  $00, X
 A38D  A0 01     LDY  #$01
 A38F  B1 24     LDA  ($24), Y
 A391  95 01     STA  $01, X
 A393  C8        INY  
 A394  B1 24     LDA  ($24), Y
 A396  95 02     STA  $02, X
 A398  C8        INY  
 A399  B1 24     LDA  ($24), Y
 A39B  95 03     STA  $03, X
 A39D  60        RTS  
 A39E  20 2A D6  JSR  $D62A
 A3A1  CA        DEX  
 A3A2  CA        DEX  
 A3A3  CA        DEX  
 A3A4  CA        DEX  
 A3A5  B5 08     LDA  $08, X
 A3A7  95 00     STA  $00, X
 A3A9  B5 09     LDA  $09, X
 A3AB  95 01     STA  $01, X
 A3AD  B5 0A     LDA  $0A, X
 A3AF  95 02     STA  $02, X
 A3B1  B5 0B     LDA  $0B, X
 A3B3  95 03     STA  $03, X
 A3B5  60        RTS  
 A3B6  CA        DEX  
 A3B7  CA        DEX  
 A3B8  CA        DEX  
 A3B9  CA        DEX  
 A3BA  8A        TXA  
 A3BB  BA        TSX  
 A3BC  DA        PHX  
 A3BD  7A        PLY  
 A3BE  AA        TAX  
 A3BF  B9 03 01  LDA  $0103, Y
 A3C2  95 00     STA  $00, X
 A3C4  B9 04 01  LDA  $0104, Y
 A3C7  95 01     STA  $01, X
 A3C9  B9 05 01  LDA  $0105, Y
 A3CC  95 02     STA  $02, X
 A3CE  B9 06 01  LDA  $0106, Y
 A3D1  95 03     STA  $03, X
 A3D3  60        RTS  
 A3D4  68        PLA  
 A3D5  85 24     STA  $24
 A3D7  68        PLA  
 A3D8  85 25     STA  $25
 A3DA  CA        DEX  
 A3DB  CA        DEX  
 A3DC  CA        DEX  
 A3DD  CA        DEX  
 A3DE  68        PLA  
 A3DF  95 00     STA  $00, X
 A3E1  68        PLA  
 A3E2  95 01     STA  $01, X
 A3E4  68        PLA  
 A3E5  95 02     STA  $02, X
 A3E7  68        PLA  
 A3E8  95 03     STA  $03, X
 A3EA  A5 25     LDA  $25
 A3EC  48        PHA  
 A3ED  A5 24     LDA  $24
 A3EF  48        PHA  
 A3F0  60        RTS  
 A3F1  20 1B D6  JSR  $D61B
 A3F4  B5 01     LDA  $01, X
 A3F6  0A        ASL  
 A3F7  76 01     ROR  $01, X
 A3F9  76 00     ROR  $00, X
 A3FB  60        RTS  
 A3FC  20 1B D6  JSR  $D61B
 A3FF  16 00     ASL  $00, X
 A401  36 01     ROL  $01, X
 A403  60        RTS  
 A404  20 25 D6  JSR  $D625
 A407  B5 00     LDA  $00, X
 A409  85 24     STA  $24
 A40B  B4 01     LDY  $01, X
 A40D  84 25     STY  $25
 A40F  E8        INX  
 A410  E8        INX  
 A411  B5 00     LDA  $00, X
 A413  92 24     STA  ($24)
 A415  B5 01     LDA  $01, X
 A417  A0 01     LDY  #$01
 A419  91 24     STA  ($24), Y
 A41B  B5 02     LDA  $02, X
 A41D  C8        INY  
 A41E  91 24     STA  ($24), Y
 A420  B5 03     LDA  $03, X
 A422  C8        INY  
 A423  91 24     STA  ($24), Y
 A425  E8        INX  
 A426  E8        INX  
 A427  E8        INX  
 A428  E8        INX  
 A429  60        RTS  
 A42A  20 2A D6  JSR  $D62A
 A42D  B5 00     LDA  $00, X
 A42F  B4 04     LDY  $04, X
 A431  95 04     STA  $04, X
 A433  94 00     STY  $00, X
 A435  B5 01     LDA  $01, X
 A437  B4 05     LDY  $05, X
 A439  95 05     STA  $05, X
 A43B  94 01     STY  $01, X
 A43D  B5 02     LDA  $02, X
 A43F  B4 06     LDY  $06, X
 A441  95 06     STA  $06, X
 A443  94 02     STY  $02, X
 A445  B5 03     LDA  $03, X
 A447  B4 07     LDY  $07, X
 A449  95 07     STA  $07, X
 A44B  94 03     STY  $03, X
 A44D  60        RTS  
 A44E  68        PLA  
 A44F  85 24     STA  $24
 A451  68        PLA  
 A452  85 25     STA  $25
 A454  20 20 D6  JSR  $D620
 A457  B5 03     LDA  $03, X
 A459  48        PHA  
 A45A  B5 02     LDA  $02, X
 A45C  48        PHA  
 A45D  B5 01     LDA  $01, X
 A45F  48        PHA  
 A460  B5 00     LDA  $00, X
 A462  48        PHA  
 A463  E8        INX  
 A464  E8        INX  
 A465  E8        INX  
 A466  E8        INX  
 A467  A5 25     LDA  $25
 A469  48        PHA  
 A46A  A5 24     LDA  $24
 A46C  48        PHA  
 A46D  60        RTS  
 A46E  20 20 D6  JSR  $D620
 A471  20 89 89  JSR  $8989
 A474  20 5A A1  JSR  $A15A
 A477  20 8E 87  JSR  $878E
 A47A  20 8E 87  JSR  $878E
 A47D  20 24 8C  JSR  $8C24
 A480  20 04 D5  JSR  $D504
 A483  20 CF 8D  JSR  $8DCF
 A486  20 A0 8F  JSR  $8FA0
 A489  20 5A A1  JSR  $A15A
 A48C  20 41 86  JSR  $8641
 A48F  20 A0 8F  JSR  $8FA0
 A492  60        RTS  
 A493  20 20 D6  JSR  $D620
 A496  20 5A A1  JSR  $A15A
 A499  20 AA 93  JSR  $93AA
 A49C  20 AA 93  JSR  $93AA
 A49F  60        RTS  
 A4A0  20 89 89  JSR  $8989
 A4A3  CA        DEX  
 A4A4  CA        DEX  
 A4A5  A9 04     LDA  #$04
 A4A7  95 00     STA  $00, X
 A4A9  74 01     STZ  $01, X
 A4AB  20 DB 82  JSR  $82DB
 A4AE  60        RTS  
 A4AF  20 20 D6  JSR  $D620
 A4B2  B5 02     LDA  $02, X
 A4B4  85 24     STA  $24
 A4B6  B5 03     LDA  $03, X
 A4B8  85 25     STA  $25
 A4BA  B5 00     LDA  $00, X
 A4BC  15 01     ORA  $01, X
 A4BE  F0 15     BEQ  $A4D5
 A4C0  B2 24     LDA  ($24)
 A4C2  20 16 8E  JSR  $8E16
 A4C5  E6 24     INC  $24
 A4C7  D0 02     BNE  $A4CB
 A4C9  E6 25     INC  $25
 A4CB  B5 00     LDA  $00, X
 A4CD  D0 02     BNE  $A4D1
 A4CF  D6 01     DEC  $01, X
 A4D1  D6 00     DEC  $00, X
 A4D3  80 E5     BRA  $A4BA
 A4D5  E8        INX  
 A4D6  E8        INX  
 A4D7  E8        INX  
 A4D8  E8        INX  
 A4D9  60        RTS  
 A4DA  20 1B D6  JSR  $D61B
 A4DD  20 67 D6  JSR  $D667
 A4E0  A9 20     LDA  #$20
 A4E2  20 16 8E  JSR  $8E16
 A4E5  60        RTS  
 A4E6  20 20 D6  JSR  $D620
 A4E9  20 1C A3  JSR  $A31C
 A4EC  20 53 A7  JSR  $A753
 A4EF  20 7A 93  JSR  $937A
 A4F2  20 90 97  JSR  $9790
 A4F5  20 6E 97  JSR  $976E
 A4F8  20 44 9A  JSR  $9A44
 A4FB  20 45 98  JSR  $9845
 A4FE  20 70 95  JSR  $9570
 A501  20 D6 A0  JSR  $A0D6
 A504  20 AF A4  JSR  $A4AF
 A507  60        RTS  
 A508  20 20 D6  JSR  $D620
 A50B  B5 00     LDA  $00, X
 A50D  D5 02     CMP  $02, X
 A50F  B5 01     LDA  $01, X
 A511  F5 03     SBC  $03, X
 A513  E8        INX  
 A514  E8        INX  
 A515  A9 00     LDA  #$00
 A517  69 FF     ADC  #$FF
 A519  95 00     STA  $00, X
 A51B  95 01     STA  $01, X
 A51D  60        RTS  
 A51E  20 20 D6  JSR  $D620
 A521  B5 02     LDA  $02, X
 A523  D5 00     CMP  $00, X
 A525  B5 03     LDA  $03, X
 A527  F5 01     SBC  $01, X
 A529  E8        INX  
 A52A  E8        INX  
 A52B  A9 00     LDA  #$00
 A52D  69 FF     ADC  #$FF
 A52F  95 00     STA  $00, X
 A531  95 01     STA  $01, X
 A533  60        RTS  
 A534  20 20 D6  JSR  $D620
 A537  20 7A 93  JSR  $937A
 A53A  20 90 97  JSR  $9790
 A53D  20 6E 97  JSR  $976E
 A540  20 AF A4  JSR  $A4AF
 A543  20 D0 A0  JSR  $A0D0
 A546  60        RTS  
 A547  20 25 D6  JSR  $D625
 A54A  20 1C A3  JSR  $A31C
 A54D  20 7A 93  JSR  $937A
 A550  20 90 97  JSR  $9790
 A553  20 6E 97  JSR  $976E
 A556  20 44 9A  JSR  $9A44
 A559  20 45 98  JSR  $9845
 A55C  20 70 95  JSR  $9570
 A55F  20 D6 A0  JSR  $A0D6
 A562  20 AF A4  JSR  $A4AF
 A565  60        RTS  
 A566  20 25 D6  JSR  $D625
 A569  B5 00     LDA  $00, X
 A56B  15 01     ORA  $01, X
 A56D  D0 05     BNE  $A574
 A56F  A9 04     LDA  #$04
 A571  4C 31 D6  JMP  $D631
 A574  A9 11     LDA  #$11
 A576  85 2C     STA  $2C
 A578  36 04     ROL  $04, X
 A57A  36 05     ROL  $05, X
 A57C  C6 2C     DEC  $2C
 A57E  F0 22     BEQ  $A5A2
 A580  36 02     ROL  $02, X
 A582  36 03     ROL  $03, X
 A584  64 24     STZ  $24
 A586  26 24     ROL  $24
 A588  38        SEC  
 A589  B5 02     LDA  $02, X
 A58B  F5 00     SBC  $00, X
 A58D  85 25     STA  $25
 A58F  B5 03     LDA  $03, X
 A591  F5 01     SBC  $01, X
 A593  A8        TAY  
 A594  A5 24     LDA  $24
 A596  E9 00     SBC  #$00
 A598  90 DE     BCC  $A578
 A59A  A5 25     LDA  $25
 A59C  95 02     STA  $02, X
 A59E  94 03     STY  $03, X
 A5A0  80 D6     BRA  $A578
 A5A2  E8        INX  
 A5A3  E8        INX  
 A5A4  20 5A A1  JSR  $A15A
 A5A7  60        RTS  
 A5A8  20 20 D6  JSR  $D620
 A5AB  18        CLC  
 A5AC  B5 00     LDA  $00, X
 A5AE  E9 00     SBC  #$00
 A5B0  85 26     STA  $26
 A5B2  B5 01     LDA  $01, X
 A5B4  E9 00     SBC  #$00
 A5B6  90 31     BCC  $A5E9
 A5B8  85 27     STA  $27
 A5BA  A9 00     LDA  #$00
 A5BC  85 24     STA  $24
 A5BE  86 28     STX  $28
 A5C0  CA        DEX  
 A5C1  CA        DEX  
 A5C2  A0 08     LDY  #$08
 A5C4  56 04     LSR  $04, X
 A5C6  90 0C     BCC  $A5D4
 A5C8  85 25     STA  $25
 A5CA  A5 24     LDA  $24
 A5CC  65 26     ADC  $26
 A5CE  85 24     STA  $24
 A5D0  A5 25     LDA  $25
 A5D2  65 27     ADC  $27
 A5D4  6A        ROR  
 A5D5  66 24     ROR  $24
 A5D7  76 04     ROR  $04, X
 A5D9  88        DEY  
 A5DA  D0 EA     BNE  $A5C6
 A5DC  E8        INX  
 A5DD  E4 28     CPX  $28
 A5DF  D0 E1     BNE  $A5C2
 A5E1  95 01     STA  $01, X
 A5E3  A5 24     LDA  $24
 A5E5  95 00     STA  $00, X
 A5E7  80 04     BRA  $A5ED
 A5E9  74 02     STZ  $02, X
 A5EB  74 03     STZ  $03, X
 A5ED  60        RTS  
 A5EE  68        PLA  
 A5EF  68        PLA  
 A5F0  68        PLA  
 A5F1  68        PLA  
 A5F2  68        PLA  
 A5F3  68        PLA  
 A5F4  60        RTS  
 A5F5  A0 92     LDY  #$92
 A5F7  A9 34     LDA  #$34
 A5F9  20 BE D4  JSR  $D4BE
 A5FC  20 8E 87  JSR  $878E
 A5FF  60        RTS  
 A600  CA        DEX  
 A601  CA        DEX  
 A602  A9 00     LDA  #$00
 A604  38        SEC  
 A605  E5 00     SBC  $00
 A607  95 00     STA  $00, X
 A609  A9 7C     LDA  #$7C
 A60B  E5 01     SBC  $01
 A60D  95 01     STA  $01, X
 A60F  60        RTS  
 A610  A0 2C     LDY  #$2C
 A612  B1 1E     LDA  ($1E), Y
 A614  09 02     ORA  #$02
 A616  91 1E     STA  ($1E), Y
 A618  60        RTS  
 A619  CA        DEX  
 A61A  CA        DEX  
 A61B  A9 1E     LDA  #$1E
 A61D  95 00     STA  $00, X
 A61F  A9 00     LDA  #$00
 A621  95 01     STA  $01, X
 A623  60        RTS  
 A624  20 89 89  JSR  $8989
 A627  A9 00     LDA  #$00
 A629  92 00     STA  ($00)
 A62B  E6 00     INC  $00
 A62D  D0 02     BNE  $A631
 A62F  E6 01     INC  $01
 A631  92 00     STA  ($00)
 A633  E6 00     INC  $00
 A635  D0 02     BNE  $A639
 A637  E6 01     INC  $01
 A639  20 51 89  JSR  $8951
 A63C  60        RTS  
 A63D  A0 92     LDY  #$92
 A63F  A9 34     LDA  #$34
 A641  20 BE D4  JSR  $D4BE
 A644  20 92 91  JSR  $9192
 A647  20 53 A7  JSR  $A753
 A64A  20 8E 87  JSR  $878E
 A64D  20 5A A1  JSR  $A15A
 A650  60        RTS  
 A651  20 25 D6  JSR  $D625
 A654  20 45 98  JSR  $9845
 A657  20 70 95  JSR  $9570
 A65A  20 1C A3  JSR  $A31C
 A65D  20 70 95  JSR  $9570
 A660  20 44 9A  JSR  $9A44
 A663  20 1E A5  JSR  $A51E
 A666  60        RTS  
 A667  20 1B D6  JSR  $D61B
 A66A  A4 0C     LDY  $0C
 A66C  C4 0A     CPY  $0A
 A66E  F0 09     BEQ  $A679
 A670  B1 08     LDA  ($08), Y
 A672  D5 00     CMP  $00, X
 A674  D0 03     BNE  $A679
 A676  C8        INY  
 A677  80 F3     BRA  $A66C
 A679  84 0C     STY  $0C
 A67B  20 EC 98  JSR  $98EC
 A67E  B5 00     LDA  $00, X
 A680  92 00     STA  ($00)
 A682  48        PHA  
 A683  20 CF 8D  JSR  $8DCF
 A686  A5 00     LDA  $00
 A688  18        CLC  
 A689  69 01     ADC  #$01
 A68B  95 02     STA  $02, X
 A68D  A5 01     LDA  $01
 A68F  69 00     ADC  #$00
 A691  95 03     STA  $03, X
 A693  20 E2 95  JSR  $95E2
 A696  CA        DEX  
 A697  CA        DEX  
 A698  A5 00     LDA  $00
 A69A  95 00     STA  $00, X
 A69C  A5 01     LDA  $01
 A69E  95 01     STA  $01, X
 A6A0  68        PLA  
 A6A1  18        CLC  
 A6A2  65 00     ADC  $00
 A6A4  85 00     STA  $00
 A6A6  A5 01     LDA  $01
 A6A8  69 00     ADC  #$00
 A6AA  85 01     STA  $01
 A6AC  60        RTS  
 A6AD  A0 05     LDY  #$05
 A6AF  B1 1E     LDA  ($1E), Y
 A6B1  C9 0C     CMP  #$0C
 A6B3  D0 05     BNE  $A6BA
 A6B5  A9 0B     LDA  #$0B
 A6B7  4C 31 D6  JMP  $D631
 A6BA  1A        INC  
 A6BB  91 1E     STA  ($1E), Y
 A6BD  CA        DEX  
 A6BE  CA        DEX  
 A6BF  95 00     STA  $00, X
 A6C1  74 01     STZ  $01, X
 A6C3  60        RTS  
 A6C4  20 83 89  JSR  $8983
 A6C7  A9 00     LDA  #$00
 A6C9  48        PHA  
 A6CA  CA        DEX  
 A6CB  CA        DEX  
 A6CC  64 28     STZ  $28
 A6CE  A0 1E     LDY  #$1E
 A6D0  A5 28     LDA  $28
 A6D2  D1 1E     CMP  ($1E), Y
 A6D4  D0 02     BNE  $A6D8
 A6D6  80 44     BRA  $A71C
 A6D8  18        CLC  
 A6D9  69 1F     ADC  #$1F
 A6DB  A8        TAY  
 A6DC  B1 1E     LDA  ($1E), Y
 A6DE  0A        ASL  
 A6DF  18        CLC  
 A6E0  69 06     ADC  #$06
 A6E2  A8        TAY  
 A6E3  B1 1E     LDA  ($1E), Y
 A6E5  95 00     STA  $00, X
 A6E7  C8        INY  
 A6E8  B1 1E     LDA  ($1E), Y
 A6EA  95 01     STA  $01, X
 A6EC  20 CF 8D  JSR  $8DCF
 A6EF  20 1E 96  JSR  $961E
 A6F2  68        PLA  
 A6F3  18        CLC  
 A6F4  75 00     ADC  $00, X
 A6F6  1A        INC  
 A6F7  C9 4F     CMP  #$4F
 A6F9  90 05     BCC  $A700
 A6FB  20 83 89  JSR  $8983
 A6FE  A9 00     LDA  #$00
 A700  48        PHA  
 A701  20 AF A4  JSR  $A4AF
 A704  A9 20     LDA  #$20
 A706  20 16 8E  JSR  $8E16
 A709  20 CF 97  JSR  $97CF
 A70C  20 CF 97  JSR  $97CF
 A70F  20 A0 8F  JSR  $8FA0
 A712  B5 00     LDA  $00, X
 A714  15 01     ORA  $01, X
 A716  D0 D4     BNE  $A6EC
 A718  E6 28     INC  $28
 A71A  80 B2     BRA  $A6CE
 A71C  68        PLA  
 A71D  E8        INX  
 A71E  E8        INX  
 A71F  60        RTS  
 A720  20 1B D6  JSR  $D61B
 A723  B5 00     LDA  $00, X
 A725  85 24     STA  $24
 A727  B5 01     LDA  $01, X
 A729  85 25     STA  $25
 A72B  A0 06     LDY  #$06
 A72D  B1 24     LDA  ($24), Y
 A72F  88        DEY  
 A730  88        DEY  
 A731  38        SEC  
 A732  F1 24     SBC  ($24), Y
 A734  95 00     STA  $00, X
 A736  A0 07     LDY  #$07
 A738  B1 24     LDA  ($24), Y
 A73A  88        DEY  
 A73B  88        DEY  
 A73C  F1 24     SBC  ($24), Y
 A73E  95 01     STA  $01, X
 A740  60        RTS  
 A741  20 20 D6  JSR  $D620
 A744  B5 00     LDA  $00, X
 A746  55 02     EOR  $02, X
 A748  95 02     STA  $02, X
 A74A  B5 01     LDA  $01, X
 A74C  55 03     EOR  $03, X
 A74E  95 03     STA  $03, X
 A750  E8        INX  
 A751  E8        INX  
 A752  60        RTS  
 A753  CA        DEX  
 A754  CA        DEX  
 A755  74 00     STZ  $00, X
 A757  74 01     STZ  $01, X
 A759  60        RTS  
 A75A  20 1B D6  JSR  $D61B
 A75D  B5 00     LDA  $00, X
 A75F  15 01     ORA  $01, X
 A761  F0 04     BEQ  $A767
 A763  A9 00     LDA  #$00
 A765  80 02     BRA  $A769
 A767  A9 FF     LDA  #$FF
 A769  95 00     STA  $00, X
 A76B  95 01     STA  $01, X
 A76D  60        RTS  
 A76E  20 1B D6  JSR  $D61B
 A771  A0 00     LDY  #$00
 A773  B5 01     LDA  $01, X
 A775  30 05     BMI  $A77C
 A777  15 00     ORA  $00, X
 A779  F0 01     BEQ  $A77C
 A77B  88        DEY  
 A77C  98        TYA  
 A77D  95 00     STA  $00, X
 A77F  95 01     STA  $01, X
 A781  60        RTS  
 A782  20 1B D6  JSR  $D61B
 A785  A0 00     LDY  #$00
 A787  B5 01     LDA  $01, X
 A789  10 01     BPL  $A78C
 A78B  88        DEY  
 A78C  98        TYA  
 A78D  95 00     STA  $00, X
 A78F  95 01     STA  $01, X
 A791  60        RTS  
 A792  20 1B D6  JSR  $D61B
 A795  A0 00     LDY  #$00
 A797  B5 00     LDA  $00, X
 A799  15 01     ORA  $01, X
 A79B  F0 01     BEQ  $A79E
 A79D  88        DEY  
 A79E  98        TYA  
 A79F  95 00     STA  $00, X
 A7A1  95 01     STA  $01, X
 A7A3  60        RTS  
 A7A4  20 CF 8D  JSR  $8DCF
 A7A7  20 8B 9E  JSR  $9E8B
 A7AA  20 39 A1  JSR  $A139
 A7AD  20 D5 85  JSR  $85D5
 A7B0  60        RTS  
 A7B1  20 A4 A7  JSR  $A7A4
 A7B4  20 4E 8D  JSR  $8D4E
 A7B7  64 2E     STZ  $2E
 A7B9  CA        DEX  
 A7BA  CA        DEX  
 A7BB  A5 2E     LDA  $2E
 A7BD  95 00     STA  $00, X
 A7BF  74 01     STZ  $01, X
 A7C1  20 86 A8  JSR  $A886
 A7C4  E6 2E     INC  $2E
 A7C6  A9 10     LDA  #$10
 A7C8  C5 2E     CMP  $2E
 A7CA  D0 ED     BNE  $A7B9
 A7CC  60        RTS  
 A7CD  20 A4 A7  JSR  $A7A4
 A7D0  CA        DEX  
 A7D1  CA        DEX  
 A7D2  74 00     STZ  $00, X
 A7D4  A9 04     LDA  #$04
 A7D6  95 01     STA  $01, X
 A7D8  20 0A 8F  JSR  $8F0A
 A7DB  20 10 A6  JSR  $A610
 A7DE  60        RTS  
 A7DF  20 6D A8  JSR  $A86D
 A7E2  CA        DEX  
 A7E3  CA        DEX  
 A7E4  A9 40     LDA  #$40
 A7E6  95 00     STA  $00, X
 A7E8  74 01     STZ  $01, X
 A7EA  20 0A 8F  JSR  $8F0A
 A7ED  20 10 A6  JSR  $A610
 A7F0  60        RTS  
 A7F1  CA        DEX  
 A7F2  CA        DEX  
 A7F3  A0 02     LDY  #$02
 A7F5  B1 1E     LDA  ($1E), Y
 A7F7  95 00     STA  $00, X
 A7F9  C8        INY  
 A7FA  B1 1E     LDA  ($1E), Y
 A7FC  95 01     STA  $01, X
 A7FE  20 E1 83  JSR  $83E1
 A801  20 83 89  JSR  $8983
 A804  80 08     BRA  $A80E
 A806  53 63 72 65 65 6E 20 23                          |Screen #        |
 A80E  20 5B A0  JSR  $A05B
 A811  06 A8 08 00                                      |....            |
 A815  20 AF A4  JSR  $A4AF
 A818  20 8B 9E  JSR  $9E8B
 A81B  20 A0 8F  JSR  $8FA0
 A81E  CA        DEX  
 A81F  CA        DEX  
 A820  A9 04     LDA  #$04
 A822  95 00     STA  $00, X
 A824  74 01     STZ  $01, X
 A826  20 E6 A4  JSR  $A4E6
 A829  64 28     STZ  $28
 A82B  20 83 89  JSR  $8983
 A82E  CA        DEX  
 A82F  CA        DEX  
 A830  CA        DEX  
 A831  CA        DEX  
 A832  74 03     STZ  $03, X
 A834  A5 28     LDA  $28
 A836  95 02     STA  $02, X
 A838  74 01     STZ  $01, X
 A83A  A9 02     LDA  #$02
 A83C  95 00     STA  $00, X
 A83E  20 E6 A4  JSR  $A4E6
 A841  20 D0 A0  JSR  $A0D0
 A844  20 CF 8D  JSR  $8DCF
 A847  CA        DEX  
 A848  CA        DEX  
 A849  A9 40     LDA  #$40
 A84B  95 00     STA  $00, X
 A84D  74 01     STZ  $01, X
 A84F  20 AF A4  JSR  $A4AF
 A852  18        CLC  
 A853  A9 40     LDA  #$40
 A855  75 00     ADC  $00, X
 A857  95 00     STA  $00, X
 A859  B5 01     LDA  $01, X
 A85B  69 00     ADC  #$00
 A85D  95 01     STA  $01, X
 A85F  E6 28     INC  $28
 A861  A5 28     LDA  $28
 A863  C9 10     CMP  #$10
 A865  D0 C4     BNE  $A82B
 A867  20 83 89  JSR  $8983
 A86A  E8        INX  
 A86B  E8        INX  
 A86C  60        RTS  
 A86D  20 1B D6  JSR  $D61B
 A870  A0 06     LDY  #$06
 A872  16 00     ASL  $00, X
 A874  36 01     ROL  $01, X
 A876  88        DEY  
 A877  D0 F9     BNE  $A872
 A879  20 8B 9E  JSR  $9E8B
 A87C  20 A0 8F  JSR  $8FA0
 A87F  20 E1 83  JSR  $83E1
 A882  20 95 99  JSR  $9995
 A885  60        RTS  
 A886  20 83 89  JSR  $8983
 A889  20 CF 8D  JSR  $8DCF
 A88C  20 53 A3  JSR  $A353
 A88F  20 E6 A4  JSR  $A4E6
 A892  20 D0 A0  JSR  $A0D0
 A895  A9 2A     LDA  #$2A
 A897  20 16 8E  JSR  $8E16
 A89A  20 D0 A0  JSR  $A0D0
 A89D  20 6D A8  JSR  $A86D
 A8A0  20 CF 8D  JSR  $8DCF
 A8A3  CA        DEX  
 A8A4  CA        DEX  
 A8A5  A9 40     LDA  #$40
 A8A7  95 00     STA  $00, X
 A8A9  74 01     STZ  $01, X
 A8AB  20 7E 81  JSR  $817E
 A8AE  20 CF 8D  JSR  $8DCF
 A8B1  20 8E 96  JSR  $968E
 A8B4  20 95 99  JSR  $9995
 A8B7  CA        DEX  
 A8B8  CA        DEX  
 A8B9  A9 40     LDA  #$40
 A8BB  95 00     STA  $00, X
 A8BD  74 01     STZ  $01, X
 A8BF  20 09 9B  JSR  $9B09
 A8C2  20 70 95  JSR  $9570
 A8C5  20 0A 8F  JSR  $8F0A
 A8C8  20 10 A6  JSR  $A610
 A8CB  60        RTS  
 A8CC  A9 69     LDA  #$69
 A8CE  4C 27 AC  JMP  $AC27
 A8D1  A9 7D     LDA  #$7D
 A8D3  4C 27 AC  JMP  $AC27
 A8D6  A9 79     LDA  #$79
 A8D8  4C 27 AC  JMP  $AC27
 A8DB  A9 65     LDA  #$65
 A8DD  4C 27 AC  JMP  $AC27
 A8E0  A9 72     LDA  #$72
 A8E2  4C 27 AC  JMP  $AC27
 A8E5  A9 71     LDA  #$71
 A8E7  4C 27 AC  JMP  $AC27
 A8EA  A9 75     LDA  #$75
 A8EC  4C 27 AC  JMP  $AC27
 A8EF  A9 61     LDA  #$61
 A8F1  4C 27 AC  JMP  $AC27
 A8F4  A9 2D     LDA  #$2D
 A8F6  4C 27 AC  JMP  $AC27
 A8F9  A9 29     LDA  #$29
 A8FB  4C 27 AC  JMP  $AC27
 A8FE  A9 3D     LDA  #$3D
 A900  4C 27 AC  JMP  $AC27
 A903  A9 39     LDA  #$39
 A905  4C 27 AC  JMP  $AC27
 A908  A9 25     LDA  #$25
 A90A  4C 27 AC  JMP  $AC27
 A90D  A9 32     LDA  #$32
 A90F  4C 27 AC  JMP  $AC27
 A912  A9 31     LDA  #$31
 A914  4C 27 AC  JMP  $AC27
 A917  A9 35     LDA  #$35
 A919  4C 27 AC  JMP  $AC27
 A91C  A9 21     LDA  #$21
 A91E  4C 27 AC  JMP  $AC27
 A921  A9 0E     LDA  #$0E
 A923  4C 27 AC  JMP  $AC27
 A926  A9 0A     LDA  #$0A
 A928  4C 27 AC  JMP  $AC27
 A92B  A9 1E     LDA  #$1E
 A92D  4C 27 AC  JMP  $AC27
 A930  A9 06     LDA  #$06
 A932  4C 27 AC  JMP  $AC27
 A935  A9 16     LDA  #$16
 A937  4C 27 AC  JMP  $AC27
 A93A  A9 90     LDA  #$90
 A93C  4C 27 AC  JMP  $AC27
 A93F  A9 B0     LDA  #$B0
 A941  A0 02     LDY  #$02
 A943  4C 27 AC  JMP  $AC27
 A946  A9 F0     LDA  #$F0
 A948  4C 27 AC  JMP  $AC27
 A94B  A9 2C     LDA  #$2C
 A94D  4C 27 AC  JMP  $AC27
 A950  A9 89     LDA  #$89
 A952  4C 27 AC  JMP  $AC27
 A955  A9 3C     LDA  #$3C
 A957  4C 27 AC  JMP  $AC27
 A95A  A9 24     LDA  #$24
 A95C  4C 27 AC  JMP  $AC27
 A95F  A9 34     LDA  #$34
 A961  4C 27 AC  JMP  $AC27
 A964  A9 30     LDA  #$30
 A966  4C 27 AC  JMP  $AC27
 A969  A9 D0     LDA  #$D0
 A96B  4C 27 AC  JMP  $AC27
 A96E  A9 10     LDA  #$10
 A970  4C 27 AC  JMP  $AC27
 A973  A9 80     LDA  #$80
 A975  4C 27 AC  JMP  $AC27
 A978  A9 00     LDA  #$00
 A97A  4C 27 AC  JMP  $AC27
 A97D  A9 50     LDA  #$50
 A97F  4C 27 AC  JMP  $AC27
 A982  A9 70     LDA  #$70
 A984  4C 27 AC  JMP  $AC27
 A987  A9 18     LDA  #$18
 A989  4C 27 AC  JMP  $AC27
 A98C  A9 D8     LDA  #$D8
 A98E  4C 27 AC  JMP  $AC27
 A991  A9 58     LDA  #$58
 A993  4C 27 AC  JMP  $AC27
 A996  A9 B8     LDA  #$B8
 A998  4C 27 AC  JMP  $AC27
 A99B  A9 CD     LDA  #$CD
 A99D  4C 27 AC  JMP  $AC27
 A9A0  A9 C9     LDA  #$C9
 A9A2  4C 27 AC  JMP  $AC27
 A9A5  A9 DD     LDA  #$DD
 A9A7  4C 27 AC  JMP  $AC27
 A9AA  A9 D9     LDA  #$D9
 A9AC  4C 27 AC  JMP  $AC27
 A9AF  A9 C5     LDA  #$C5
 A9B1  4C 27 AC  JMP  $AC27
 A9B4  A9 D2     LDA  #$D2
 A9B6  4C 27 AC  JMP  $AC27
 A9B9  A9 D1     LDA  #$D1
 A9BB  4C 27 AC  JMP  $AC27
 A9BE  A9 D5     LDA  #$D5
 A9C0  4C 27 AC  JMP  $AC27
 A9C3  A9 C1     LDA  #$C1
 A9C5  4C 27 AC  JMP  $AC27
 A9C8  A9 EC     LDA  #$EC
 A9CA  4C 27 AC  JMP  $AC27
 A9CD  A9 E0     LDA  #$E0
 A9CF  4C 27 AC  JMP  $AC27
 A9D2  A9 E4     LDA  #$E4
 A9D4  4C 27 AC  JMP  $AC27
 A9D7  A9 CC     LDA  #$CC
 A9D9  A0 03     LDY  #$03
 A9DB  4C 27 AC  JMP  $AC27
 A9DE  A9 C0     LDA  #$C0
 A9E0  4C 27 AC  JMP  $AC27
 A9E3  A9 C4     LDA  #$C4
 A9E5  4C 27 AC  JMP  $AC27
 A9E8  A9 CE     LDA  #$CE
 A9EA  4C 27 AC  JMP  $AC27
 A9ED  A9 3A     LDA  #$3A
 A9EF  4C 27 AC  JMP  $AC27
 A9F2  A9 DE     LDA  #$DE
 A9F4  4C 27 AC  JMP  $AC27
 A9F7  A9 C6     LDA  #$C6
 A9F9  4C 27 AC  JMP  $AC27
 A9FC  A9 D6     LDA  #$D6
 A9FE  4C 27 AC  JMP  $AC27
 AA01  A9 CA     LDA  #$CA
 AA03  4C 27 AC  JMP  $AC27
 AA06  A9 88     LDA  #$88
 AA08  4C 27 AC  JMP  $AC27
 AA0B  A9 4D     LDA  #$4D
 AA0D  4C 27 AC  JMP  $AC27
 AA10  A9 49     LDA  #$49
 AA12  4C 27 AC  JMP  $AC27
 AA15  A9 5D     LDA  #$5D
 AA17  4C 27 AC  JMP  $AC27
 AA1A  A9 59     LDA  #$59
 AA1C  4C 27 AC  JMP  $AC27
 AA1F  A9 45     LDA  #$45
 AA21  4C 27 AC  JMP  $AC27
 AA24  A9 52     LDA  #$52
 AA26  4C 27 AC  JMP  $AC27
 AA29  A9 51     LDA  #$51
 AA2B  4C 27 AC  JMP  $AC27
 AA2E  A9 55     LDA  #$55
 AA30  4C 27 AC  JMP  $AC27
 AA33  A9 41     LDA  #$41
 AA35  4C 27 AC  JMP  $AC27
 AA38  A9 EE     LDA  #$EE
 AA3A  4C 27 AC  JMP  $AC27
 AA3D  A9 1A     LDA  #$1A
 AA3F  4C 27 AC  JMP  $AC27
 AA42  A9 FE     LDA  #$FE
 AA44  4C 27 AC  JMP  $AC27
 AA47  A9 E6     LDA  #$E6
 AA49  4C 27 AC  JMP  $AC27
 AA4C  A9 F6     LDA  #$F6
 AA4E  4C 27 AC  JMP  $AC27
 AA51  A9 E8     LDA  #$E8
 AA53  4C 27 AC  JMP  $AC27
 AA56  A9 C8     LDA  #$C8
 AA58  4C 27 AC  JMP  $AC27
 AA5B  A9 4C     LDA  #$4C
 AA5D  4C 27 AC  JMP  $AC27
 AA60  A9 6C     LDA  #$6C
 AA62  4C 27 AC  JMP  $AC27
 AA65  A9 7C     LDA  #$7C
 AA67  4C 27 AC  JMP  $AC27
 AA6A  A9 20     LDA  #$20
 AA6C  4C 27 AC  JMP  $AC27
 AA6F  A9 AD     LDA  #$AD
 AA71  4C 27 AC  JMP  $AC27
 AA74  A9 A9     LDA  #$A9
 AA76  4C 27 AC  JMP  $AC27
 AA79  A9 BD     LDA  #$BD
 AA7B  4C 27 AC  JMP  $AC27
 AA7E  A9 B9     LDA  #$B9
 AA80  4C 27 AC  JMP  $AC27
 AA83  A9 A5     LDA  #$A5
 AA85  4C 27 AC  JMP  $AC27
 AA88  A9 B2     LDA  #$B2
 AA8A  4C 27 AC  JMP  $AC27
 AA8D  A9 B1     LDA  #$B1
 AA8F  4C 27 AC  JMP  $AC27
 AA92  A9 B5     LDA  #$B5
 AA94  4C 27 AC  JMP  $AC27
 AA97  A9 A1     LDA  #$A1
 AA99  4C 27 AC  JMP  $AC27
 AA9C  A9 AE     LDA  #$AE
 AA9E  4C 27 AC  JMP  $AC27
 AAA1  A9 A2     LDA  #$A2
 AAA3  4C 27 AC  JMP  $AC27
 AAA6  A9 BE     LDA  #$BE
 AAA8  4C 27 AC  JMP  $AC27
 AAAB  A9 A6     LDA  #$A6
 AAAD  4C 27 AC  JMP  $AC27
 AAB0  A9 B6     LDA  #$B6
 AAB2  4C 27 AC  JMP  $AC27
 AAB5  A9 AC     LDA  #$AC
 AAB7  4C 27 AC  JMP  $AC27
 AABA  A9 A0     LDA  #$A0
 AABC  4C 27 AC  JMP  $AC27
 AABF  A9 BC     LDA  #$BC
 AAC1  4C 27 AC  JMP  $AC27
 AAC4  A9 A4     LDA  #$A4
 AAC6  4C 27 AC  JMP  $AC27
 AAC9  A9 B4     LDA  #$B4
 AACB  4C 27 AC  JMP  $AC27
 AACE  A9 4E     LDA  #$4E
 AAD0  4C 27 AC  JMP  $AC27
 AAD3  A9 4A     LDA  #$4A
 AAD5  4C 27 AC  JMP  $AC27
 AAD8  A9 5E     LDA  #$5E
 AADA  4C 27 AC  JMP  $AC27
 AADD  A9 46     LDA  #$46
 AADF  4C 27 AC  JMP  $AC27
 AAE2  A9 56     LDA  #$56
 AAE4  4C 27 AC  JMP  $AC27
 AAE7  A9 EA     LDA  #$EA
 AAE9  4C 27 AC  JMP  $AC27
 AAEC  A9 0D     LDA  #$0D
 AAEE  4C 27 AC  JMP  $AC27
 AAF1  A9 09     LDA  #$09
 AAF3  4C 27 AC  JMP  $AC27
 AAF6  A9 1D     LDA  #$1D
 AAF8  4C 27 AC  JMP  $AC27
 AAFB  A9 19     LDA  #$19
 AAFD  4C 27 AC  JMP  $AC27
 AB00  A9 05     LDA  #$05
 AB02  4C 27 AC  JMP  $AC27
 AB05  A9 12     LDA  #$12
 AB07  A0 02     LDY  #$02
 AB09  4C 27 AC  JMP  $AC27
 AB0C  A9 11     LDA  #$11
 AB0E  4C 27 AC  JMP  $AC27
 AB11  A9 15     LDA  #$15
 AB13  4C 27 AC  JMP  $AC27
 AB16  A9 01     LDA  #$01
 AB18  4C 27 AC  JMP  $AC27
 AB1B  A9 48     LDA  #$48
 AB1D  4C 27 AC  JMP  $AC27
 AB20  A9 08     LDA  #$08
 AB22  4C 27 AC  JMP  $AC27
 AB25  A9 DA     LDA  #$DA
 AB27  4C 27 AC  JMP  $AC27
 AB2A  A9 5A     LDA  #$5A
 AB2C  4C 27 AC  JMP  $AC27
 AB2F  A9 68     LDA  #$68
 AB31  4C 27 AC  JMP  $AC27
 AB34  A9 28     LDA  #$28
 AB36  4C 27 AC  JMP  $AC27
 AB39  A9 FA     LDA  #$FA
 AB3B  4C 27 AC  JMP  $AC27
 AB3E  A9 7A     LDA  #$7A
 AB40  4C 27 AC  JMP  $AC27
 AB43  A9 2E     LDA  #$2E
 AB45  4C 27 AC  JMP  $AC27
 AB48  A9 2A     LDA  #$2A
 AB4A  4C 27 AC  JMP  $AC27
 AB4D  A9 3E     LDA  #$3E
 AB4F  4C 27 AC  JMP  $AC27
 AB52  A9 26     LDA  #$26
 AB54  4C 27 AC  JMP  $AC27
 AB57  A9 36     LDA  #$36
 AB59  4C 27 AC  JMP  $AC27
 AB5C  A9 6E     LDA  #$6E
 AB5E  4C 27 AC  JMP  $AC27
 AB61  A9 6A     LDA  #$6A
 AB63  4C 27 AC  JMP  $AC27
 AB66  A9 7E     LDA  #$7E
 AB68  4C 27 AC  JMP  $AC27
 AB6B  A9 66     LDA  #$66
 AB6D  4C 27 AC  JMP  $AC27
 AB70  A9 76     LDA  #$76
 AB72  4C 27 AC  JMP  $AC27
 AB75  A9 40     LDA  #$40
 AB77  4C 27 AC  JMP  $AC27
 AB7A  A9 60     LDA  #$60
 AB7C  4C 27 AC  JMP  $AC27
 AB7F  A9 ED     LDA  #$ED
 AB81  4C 27 AC  JMP  $AC27
 AB84  A9 E9     LDA  #$E9
 AB86  4C 27 AC  JMP  $AC27
 AB89  A9 FD     LDA  #$FD
 AB8B  4C 27 AC  JMP  $AC27
 AB8E  A9 F9     LDA  #$F9
 AB90  4C 27 AC  JMP  $AC27
 AB93  A9 E5     LDA  #$E5
 AB95  4C 27 AC  JMP  $AC27
 AB98  A9 F2     LDA  #$F2
 AB9A  4C 27 AC  JMP  $AC27
 AB9D  A9 F1     LDA  #$F1
 AB9F  4C 27 AC  JMP  $AC27
 ABA2  A9 F5     LDA  #$F5
 ABA4  4C 27 AC  JMP  $AC27
 ABA7  A9 E1     LDA  #$E1
 ABA9  80 7C     BRA  $AC27
 ABAB  A9 38     LDA  #$38
 ABAD  80 78     BRA  $AC27
 ABAF  A9 F8     LDA  #$F8
 ABB1  80 74     BRA  $AC27
 ABB3  A9 78     LDA  #$78
 ABB5  80 70     BRA  $AC27
 ABB7  A9 8D     LDA  #$8D
 ABB9  80 6C     BRA  $AC27
 ABBB  A9 9D     LDA  #$9D
 ABBD  80 68     BRA  $AC27
 ABBF  A9 99     LDA  #$99
 ABC1  80 64     BRA  $AC27
 ABC3  A9 85     LDA  #$85
 ABC5  80 60     BRA  $AC27
 ABC7  A9 92     LDA  #$92
 ABC9  80 5C     BRA  $AC27
 ABCB  A9 91     LDA  #$91
 ABCD  80 58     BRA  $AC27
 ABCF  A9 95     LDA  #$95
 ABD1  80 54     BRA  $AC27
 ABD3  A9 81     LDA  #$81
 ABD5  80 50     BRA  $AC27
 ABD7  A9 8E     LDA  #$8E
 ABD9  80 4C     BRA  $AC27
 ABDB  A9 86     LDA  #$86
 ABDD  80 48     BRA  $AC27
 ABDF  A9 96     LDA  #$96
 ABE1  80 44     BRA  $AC27
 ABE3  A9 8C     LDA  #$8C
 ABE5  80 40     BRA  $AC27
 ABE7  A9 84     LDA  #$84
 ABE9  80 3C     BRA  $AC27
 ABEB  A9 94     LDA  #$94
 ABED  80 38     BRA  $AC27
 ABEF  A9 9C     LDA  #$9C
 ABF1  80 34     BRA  $AC27
 ABF3  A9 9E     LDA  #$9E
 ABF5  80 30     BRA  $AC27
 ABF7  A9 64     LDA  #$64
 ABF9  80 2C     BRA  $AC27
 ABFB  A9 74     LDA  #$74
 ABFD  80 28     BRA  $AC27
 ABFF  A9 AA     LDA  #$AA
 AC01  80 24     BRA  $AC27
 AC03  A9 A8     LDA  #$A8
 AC05  80 20     BRA  $AC27
 AC07  A9 1C     LDA  #$1C
 AC09  80 1C     BRA  $AC27
 AC0B  A9 14     LDA  #$14
 AC0D  80 18     BRA  $AC27
 AC0F  A9 0C     LDA  #$0C
 AC11  80 14     BRA  $AC27
 AC13  A9 04     LDA  #$04
 AC15  80 10     BRA  $AC27
 AC17  A9 BA     LDA  #$BA
 AC19  80 0C     BRA  $AC27
 AC1B  A9 8A     LDA  #$8A
 AC1D  80 08     BRA  $AC27
 AC1F  A9 9A     LDA  #$9A
 AC21  80 04     BRA  $AC27
 AC23  A9 98     LDA  #$98
 AC25  80 00     BRA  $AC27
 AC27  A8        TAY  
 AC28  20 CE D4  JSR  $D4CE
 AC2B  A9 26     LDA  #$26
 AC2D  85 26     STA  $26
 AC2F  A9 AD     LDA  #$AD
 AC31  85 27     STA  $27
 AC33  98        TYA  
 AC34  0A        ASL  
 AC35  90 02     BCC  $AC39
 AC37  E6 27     INC  $27
 AC39  A8        TAY  
 AC3A  B1 26     LDA  ($26), Y
 AC3C  85 28     STA  $28
 AC3E  C8        INY  
 AC3F  B1 26     LDA  ($26), Y
 AC41  85 29     STA  $29
 AC43  B2 28     LDA  ($28)
 AC45  2A        ROL  
 AC46  2A        ROL  
 AC47  2A        ROL  
 AC48  29 03     AND  #$03
 AC4A  A8        TAY  
 AC4B  88        DEY  
 AC4C  F0 12     BEQ  $AC60
 AC4E  20 1B D6  JSR  $D61B
 AC51  B5 00     LDA  $00, X
 AC53  20 CE D4  JSR  $D4CE
 AC56  88        DEY  
 AC57  F0 05     BEQ  $AC5E
 AC59  B5 01     LDA  $01, X
 AC5B  20 CE D4  JSR  $D4CE
 AC5E  E8        INX  
 AC5F  E8        INX  
 AC60  60        RTS  
 AC61  A0 00     LDY  #$00
 AC63  B9 71 AC  LDA  $AC71, Y
 AC66  C9 FF     CMP  #$FF
 AC68  F0 06     BEQ  $AC70
 AC6A  20 CE D4  JSR  $D4CE
 AC6D  C8        INY  
 AC6E  80 F3     BRA  $AC63
 AC70  60        RTS  
 AC71  CA CA 95 00 74 01 FF                             |....t..         |
 AC78  60        RTS  
 AC79  20 92 91  JSR  $9192
 AC7C  20 70 95  JSR  $9570
 AC7F  3A        DEC  
 AC80  3A        DEC  
 AC81  60        RTS  
 AC82  20 83 89  JSR  $8983
 AC85  20 45 98  JSR  $9845
 AC88  20 DA A4  JSR  $A4DA
 AC8B  20 D0 A0  JSR  $A0D0
 AC8E  A9 26     LDA  #$26
 AC90  85 26     STA  $26
 AC92  A9 AD     LDA  #$AD
 AC94  85 27     STA  $27
 AC96  A1 02     LDA  ($02, X)
 AC98  0A        ASL  
 AC99  90 02     BCC  $AC9D
 AC9B  E6 27     INC  $27
 AC9D  A8        TAY  
 AC9E  B1 26     LDA  ($26), Y
 ACA0  85 28     STA  $28
 ACA2  48        PHA  
 ACA3  C8        INY  
 ACA4  B1 26     LDA  ($26), Y
 ACA6  85 29     STA  $29
 ACA8  48        PHA  
 ACA9  B2 28     LDA  ($28)
 ACAB  A8        TAY  
 ACAC  10 38     BPL  $ACE6
 ACAE  20 53 A7  JSR  $A753
 ACB1  F6 04     INC  $04, X
 ACB3  D0 02     BNE  $ACB7
 ACB5  F6 05     INC  $05, X
 ACB7  B5 02     LDA  $02, X
 ACB9  D0 02     BNE  $ACBD
 ACBB  D6 03     DEC  $03, X
 ACBD  D6 02     DEC  $02, X
 ACBF  A1 04     LDA  ($04, X)
 ACC1  95 00     STA  $00, X
 ACC3  98        TYA  
 ACC4  2A        ROL  
 ACC5  10 12     BPL  $ACD9
 ACC7  F6 04     INC  $04, X
 ACC9  D0 02     BNE  $ACCD
 ACCB  F6 05     INC  $05, X
 ACCD  B5 02     LDA  $02, X
 ACCF  D0 02     BNE  $ACD3
 ACD1  D6 03     DEC  $03, X
 ACD3  D6 02     DEC  $02, X
 ACD5  A1 04     LDA  ($04, X)
 ACD7  95 01     STA  $01, X
 ACD9  CA        DEX  
 ACDA  CA        DEX  
 ACDB  A9 05     LDA  #$05
 ACDD  95 00     STA  $00, X
 ACDF  74 01     STZ  $01, X
 ACE1  20 E6 A4  JSR  $A4E6
 ACE4  80 0B     BRA  $ACF1
 ACE6  CA        DEX  
 ACE7  CA        DEX  
 ACE8  A9 05     LDA  #$05
 ACEA  95 00     STA  $00, X
 ACEC  74 01     STZ  $01, X
 ACEE  20 D6 A0  JSR  $A0D6
 ACF1  20 D0 A0  JSR  $A0D0
 ACF4  CA        DEX  
 ACF5  CA        DEX  
 ACF6  68        PLA  
 ACF7  95 01     STA  $01, X
 ACF9  68        PLA  
 ACFA  95 00     STA  $00, X
 ACFC  20 6F 89  JSR  $896F
 ACFF  74 01     STZ  $01, X
 AD01  B5 00     LDA  $00, X
 AD03  29 07     AND  #$07
 AD05  95 00     STA  $00, X
 AD07  20 AF A4  JSR  $A4AF
 AD0A  20 83 89  JSR  $8983
 AD0D  F6 02     INC  $02, X
 AD0F  D0 02     BNE  $AD13
 AD11  F6 03     INC  $03, X
 AD13  20 C3 97  JSR  $97C3
 AD16  B5 00     LDA  $00, X
 AD18  15 01     ORA  $01, X
 AD1A  F0 07     BEQ  $AD23
 AD1C  B5 01     LDA  $01, X
 AD1E  30 03     BMI  $AD23
 AD20  4C 85 AC  JMP  $AC85
 AD23  4C 5C A3  JMP  $A35C
 AD26  26 AF 2A AF BE B3 BE B3 32 AF 38 AF 3E AF BE B3  |&.*.....2.8.>...|
 AD36  44 AF 48 AF 4E AF BE B3 54 AF 58 AF 5C AF 60 AF  |D.H.N...T.X.\.`.|
 AD46  65 AF 69 AF 71 AF BE B3 78 AF 7E AF 85 AF 8C AF  |e.i.q...x.~.....|
 AD56  93 AF 97 AF 9D AF BE B3 A3 AF A7 AF BE B3 AD AF  |................|
 AD66  B3 AF B7 AF BE B3 BE B3 BF AF C5 AF CB AF D1 AF  |................|
 AD76  D8 AF DC AF E2 AF BE B3 E8 AF EC AF F1 AF F5 AF  |................|
 AD86  FA AF FE AF 06 B0 BE B3 0D B0 15 B0 1C B0 23 B0  |..............#.|
 AD96  2A B0 2E B0 34 B0 BE B3 3A B0 40 B0 46 B0 60 AF  |*...4...:.@.F.`.|
 ADA6  51 B0 55 B0 BE B3 BE B3 BE B3 5D B0 63 B0 69 B0  |Q.U.......].c.i.|
 ADB6  70 B0 74 B0 7A B0 BE B3 80 B0 84 B0 88 B0 8C B0  |p.t.z...........|
 ADC6  91 B0 95 B0 9D B0 BE B3 BE B3 A4 B0 AB B0 B2 B0  |................|
 ADD6  B9 B0 BD B0 C3 B0 BE B3 BE B3 BE B3 CD B0 D3 B0  |................|
 ADE6  D8 B0 DC B0 BE B3 BE B3 E4 B0 EA B0 F0 B0 F6 B0  |................|
 ADF6  FD B0 01 B1 07 B1 BE B3 0D B1 13 B1 17 B1 1B B1  |................|
 AE06  20 B1 24 B1 2C B1 BE B3 33 B1 3A B1 41 B1 48 B1  | .$.,...3.:.A.H.|
 AE16  4F B1 53 B1 59 B1 BE B3 5D B1 64 B1 6A B1 70 B1  |O.S.Y...].d.j.p.|
 AE26  75 B1 79 B1 BE B3 BE B3 81 B1 87 B1 8D B1 BE B3  |u.y.............|
 AE36  93 B1 97 B1 9D B1 BE B3 A1 B1 A5 B1 A9 B1 AD B1  |................|
 AE46  B2 B1 B6 B1 BE B1 BE B3 C5 B1 CC B1 D3 B1 DA B1  |................|
 AE56  E1 B1 E5 B1 EB B1 BE B3 EF B1 F3 B1 F9 B1 FF B1  |................|
 AE66  04 B2 0A B2 12 B2 BE B3 18 B2 1E B2 24 B2 2A B2  |............$.*.|
 AE76  31 B2 35 B2 3B B2 BE B3 3F B2 43 B2 47 B2 4B B2  |1.5.;...?.C.G.K.|
 AE86  50 B2 54 B2 5C B2 BE B3 63 B2 6A B2 71 B2 78 B2  |P.T.\...c.j.q.x.|
 AE96  7F B2 83 B2 89 B2 BE B3 8D B2 93 B2 99 B2 9F B2  |................|
 AEA6  A4 B2 AA B2 BE B3 BE B3 B2 B2 B8 B2 BE B2 C4 B2  |................|
 AEB6  CB B2 CF B2 D5 B2 BE B3 D9 B2 DD B2 E1 B2 E5 B2  |................|
 AEC6  EA B2 EE B2 F6 B2 BE B3 BE B3 FD B2 04 B3 0B B3  |................|
 AED6  12 B3 16 B3 1C B3 BE B3 BE B3 20 B3 26 B3 2C B3  |.......... .&.,.|
 AEE6  31 B3 37 B3 BE B3 BE B3 3F B3 45 B3 4B B3 51 B3  |1.7.....?.E.K.Q.|
 AEF6  58 B3 5C B3 62 B3 BE B3 66 B3 6A B3 6E B3 72 B3  |X.\.b...f.j.n.r.|
 AF06  77 B3 7B B3 83 B3 BE B3 BE B3 8A B3 91 B3 98 B3  |w.{.............|
 AF16  9F B3 A3 B3 A9 B3 BE B3 BE B3 AD B3 B3 B3 B9 B3  |................|
 AF26  83 62 72 6B 87 6F 72 61 2E 7A 78 69 85 74 73 62  |.brk.ora.zxi.tsb|
 AF36  2E 7A 85 6F 72 64 2E 7A 85 61 73 6C 2E 7A 43 70  |.z.ord.z.asl.zCp|
 AF46  68 70 85 6F 72 61 2E 23 45 61 73 6C 2E 61 C3 74  |hp.ora.#Easl.a.t|
 AF56  73 62 C3 6F 72 61 C3 61 73 6C C4 62 62 72 30 83  |sb.ora.asl.bbr0.|
 AF66  62 70 6C 87 6F 72 61 2E 7A 69 79 86 6F 72 61 2E  |bpl.ora.ziy.ora.|
 AF76  7A 69 85 74 72 62 2E 7A 86 6F 72 61 2E 7A 78 86  |zi.trb.z.ora.zx.|
 AF86  61 73 6C 2E 7A 78 86 72 6D 62 31 2E 7A 43 63 6C  |asl.zx.rmb1.zCcl|
 AF96  63 C5 6F 72 61 2E 79 45 69 6E 63 2E 61 C3 74 72  |c.ora.yEinc.a.tr|
 AFA6  62 C5 6F 72 61 2E 78 C5 61 73 6C 2E 78 C3 6A 73  |b.ora.x.asl.x.js|
 AFB6  72 87 61 6E 64 2E 7A 78 69 85 62 69 74 2E 7A 85  |r.and.zxi.bit.z.|
 AFC6  61 6E 64 2E 7A 85 72 6F 6C 2E 7A 86 72 6D 62 32  |and.z.rol.z.rmb2|
 AFD6  2E 7A 43 70 6C 70 85 61 6E 64 2E 23 45 72 6F 6C  |.zCplp.and.#Erol|
 AFE6  2E 61 C3 62 69 74 C4 61 6E 64 2E C3 72 6F 6C C4  |.a.bit.and..rol.|
 AFF6  62 62 72 32 83 62 6D 69 87 61 6E 64 2E 7A 69 79  |bbr2.bmi.and.ziy|
 B006  86 61 6E 64 2E 7A 69 87 62 69 74 2E 7A 78 69 86  |.and.zi.bit.zxi.|
 B016  61 6E 64 2E 7A 78 86 72 6F 6C 2E 7A 78 86 72 6D  |and.zx.rol.zx.rm|
 B026  62 33 2E 7A 43 73 65 63 C5 61 6E 64 2E 79 45 64  |b3.zCsec.and.yEd|
 B036  65 63 2E 61 C5 62 69 74 2E 78 C5 61 6E 64 2E 78  |ec.a.bit.x.and.x|
 B046  C5 72 6F 6C 2E 78 C4 62 62 72 33 43 72 74 69 87  |.rol.x.bbr3Crti.|
 B056  65 6F 72 2E 7A 78 69 85 65 6F 72 2E 7A 85 6C 73  |eor.zxi.eor.z.ls|
 B066  72 2E 7A 86 72 62 6D 34 2E 7A 43 70 68 61 85 65  |r.z.rbm4.zCpha.e|
 B076  6F 72 2E 23 45 6C 73 72 2E 61 C3 6A 6D 70 C3 65  |or.#Elsr.a.jmp.e|
 B086  6F 72 C3 6C 73 72 C4 62 62 72 34 83 62 76 63 87  |or.lsr.bbr4.bvc.|
 B096  65 6F 72 2E 7A 69 79 86 65 6F 72 2E 7A 69 86 65  |eor.ziy.eor.zi.e|
 B0A6  6F 72 2E 7A 78 86 6C 73 72 2E 7A 78 86 72 62 6D  |or.zx.lsr.zx.rbm|
 B0B6  35 2E 7A 43 63 6C 69 C5 65 6F 72 2E 79 43 70 68  |5.zCcli.eor.yCph|
 B0C6  79 C5 65 6F 72 2E 78 C5 6C 73 72 2E 78 C4 62 62  |y.eor.x.lsr.x.bb|
 B0D6  72 35 43 72 74 73 87 61 64 63 2E 7A 78 69 85 73  |r5Crts.adc.zxi.s|
 B0E6  74 7A 2E 7A 85 61 64 63 2E 7A 85 72 6F 72 2E 7A  |tz.z.adc.z.ror.z|
 B0F6  86 72 6D 62 36 2E 7A 43 70 6C 61 85 61 64 63 2E  |.rmb6.zCpla.adc.|
 B106  23 45 72 6F 72 2E 61 C5 6A 6D 70 2E 69 C3 61 64  |#Eror.a.jmp.i.ad|
 B116  63 C3 72 6F 72 C4 62 62 72 36 83 62 76 73 87 61  |c.ror.bbr6.bvs.a|
 B126  64 63 2E 7A 69 79 86 61 64 63 2E 7A 69 86 73 74  |dc.ziy.adc.zi.st|
 B136  7A 2E 7A 78 86 61 64 63 2E 7A 78 86 72 6F 72 2E  |z.zx.adc.zx.ror.|
 B146  7A 78 86 72 6D 62 37 2E 7A 43 73 65 69 C5 61 64  |zx.rmb7.zCsei.ad|
 B156  63 2E 79 43 70 6C 79 C6 6A 6D 70 2E 78 69 C5 61  |c.yCply.jmp.xi.a|
 B166  64 63 2E 78 C5 72 6F 72 2E 78 C4 62 62 72 37 83  |dc.x.ror.x.bbr7.|
 B176  62 72 61 87 73 74 61 2E 7A 78 69 85 73 74 79 2E  |bra.sta.zxi.sty.|
 B186  7A 85 73 74 61 2E 7A 85 73 74 78 2E 7A 43 64 65  |z.sta.z.stx.zCde|
 B196  79 85 62 69 74 2E 23 43 74 78 61 C3 73 74 79 C3  |y.bit.#Ctxa.sty.|
 B1A6  73 74 61 C3 73 74 78 C4 62 62 73 30 83 62 63 63  |sta.stx.bbs0.bcc|
 B1B6  87 73 74 61 2E 7A 69 79 86 73 74 61 2E 7A 69 86  |.sta.ziy.sta.zi.|
 B1C6  73 74 79 2E 7A 78 86 73 74 61 2E 7A 78 86 73 74  |sty.zx.sta.zx.st|
 B1D6  78 2E 7A 79 86 73 6D 62 31 2E 7A 43 74 79 61 C5  |x.zy.smb1.zCtya.|
 B1E6  73 74 61 2E 79 43 74 78 73 C3 73 74 7A C5 73 74  |sta.yCtxs.stz.st|
 B1F6  61 2E 78 C5 73 74 7A 2E 78 C4 62 62 73 31 85 6C  |a.x.stz.x.bbs1.l|
 B206  64 79 2E 23 87 6C 64 61 2E 7A 78 69 85 6C 64 78  |dy.#.lda.zxi.ldx|
 B216  2E 23 85 6C 64 79 2E 7A 85 6C 64 61 2E 7A 85 6C  |.#.ldy.z.lda.z.l|
 B226  64 78 2E 7A 86 73 6D 62 32 2E 7A 43 74 61 79 85  |dx.z.smb2.zCtay.|
 B236  6C 64 61 2E 23 43 74 61 78 C3 6C 64 79 C3 6C 64  |lda.#Ctax.ldy.ld|
 B246  61 C3 6C 64 78 C4 62 62 73 32 83 62 63 73 87 6C  |a.ldx.bbs2.bcs.l|
 B256  64 61 2E 7A 69 79 86 6C 64 61 2E 7A 69 86 6C 64  |da.ziy.lda.zi.ld|
 B266  79 2E 7A 78 86 6C 64 61 2E 7A 78 86 6C 64 78 2E  |y.zx.lda.zx.ldx.|
 B276  7A 79 86 73 6D 62 33 2E 7A 43 63 6C 76 C5 6C 64  |zy.smb3.zCclv.ld|
 B286  61 2E 79 43 74 73 78 C5 6C 64 79 2E 78 C5 6C 64  |a.yCtsx.ldy.x.ld|
 B296  61 2E 78 C5 6C 64 78 2E 79 C4 62 62 73 34 85 63  |a.x.ldx.y.bbs4.c|
 B2A6  70 79 2E 23 87 63 6D 70 2E 7A 78 69 85 63 70 79  |py.#.cmp.zxi.cpy|
 B2B6  2E 7A 85 63 6D 70 2E 7A 85 64 65 63 2E 7A 86 73  |.z.cmp.z.dec.z.s|
 B2C6  6D 62 34 2E 7A 43 69 6E 79 85 63 6D 70 2E 23 43  |mb4.zCiny.cmp.#C|
 B2D6  64 65 78 C3 63 70 79 C3 63 6D 70 C3 64 65 63 C4  |dex.cpy.cmp.dec.|
 B2E6  62 62 73 34 83 62 6E 65 87 63 6D 70 2E 7A 69 79  |bbs4.bne.cmp.ziy|
 B2F6  86 63 6D 70 2E 7A 69 86 63 6D 70 2E 7A 78 86 64  |.cmp.zi.cmp.zx.d|
 B306  65 63 2E 7A 78 86 73 6D 62 35 2E 7A 43 63 6C 64  |ec.zx.smb5.zCcld|
 B316  C5 63 6D 70 2E 79 43 70 68 78 C5 63 6D 70 2E 78  |.cmp.yCphx.cmp.x|
 B326  C5 64 65 63 2E 78 C4 62 62 73 35 85 63 70 78 2E  |.dec.x.bbs5.cpx.|
 B336  23 87 73 62 63 2E 7A 78 69 85 63 70 78 2E 7A 85  |#.sbc.zxi.cpx.z.|
 B346  73 62 63 2E 7A 85 69 6E 63 2E 7A 86 73 6D 62 36  |sbc.z.inc.z.smb6|
 B356  2E 7A 43 69 6E 78 85 73 62 63 2E 23 43 6E 6F 70  |.zCinx.sbc.#Cnop|
 B366  C3 63 70 78 C3 73 62 63 C3 69 6E 63 C4 62 62 73  |.cpx.sbc.inc.bbs|
 B376  36 83 62 65 71 87 73 62 63 2E 7A 69 79 86 73 62  |6.beq.sbc.ziy.sb|
 B386  63 2E 7A 69 86 73 62 63 2E 7A 78 86 69 6E 63 2E  |c.zi.sbc.zx.inc.|
 B396  7A 78 86 73 6D 62 37 2E 7A 43 73 65 64 C5 73 62  |zx.smb7.zCsed.sb|
 B3A6  63 2E 79 43 70 6C 78 C5 73 62 63 2E 78 C5 69 6E  |c.yCplx.sbc.x.in|
 B3B6  63 2E 78 C4 62 62 73 37 01 3F                    |c.x.bbs7.?      |
 B3C0  64 2E     STZ  $2E
 B3C2  64 2F     STZ  $2F
 B3C4  64 30     STZ  $30
 B3C6  64 31     STZ  $31
 B3C8  64 32     STZ  $32
 B3CA  20 53 A7  JSR  $A753
 B3CD  20 53 A7  JSR  $A753
 B3D0  20 83 89  JSR  $8983
 B3D3  A9 81     LDA  #$81
 B3D5  14 32     TRB  $32
 B3D7  20 9E B8  JSR  $B89E
 B3DA  A5 0A     LDA  $0A
 B3DC  D0 1F     BNE  $B3FD
 B3DE  CA        DEX  
 B3DF  CA        DEX  
 B3E0  A5 30     LDA  $30
 B3E2  95 00     STA  $00, X
 B3E4  A5 31     LDA  $31
 B3E6  95 01     STA  $01, X
 B3E8  A9 80     LDA  #$80
 B3EA  04 32     TSB  $32
 B3EC  20 CF 97  JSR  $97CF
 B3EF  20 BA B8  JSR  $B8BA
 B3F2  B0 03     BCS  $B3F7
 B3F4  4C 8E B8  JMP  $B88E
 B3F7  20 53 A7  JSR  $A753
 B3FA  4C C8 B4  JMP  $B4C8
 B3FD  20 53 A7  JSR  $A753
 B400  20 53 A7  JSR  $A753
 B403  B2 08     LDA  ($08)
 B405  C9 2E     CMP  #$2E
 B407  D0 3A     BNE  $B443
 B409  20 AF B8  JSR  $B8AF
 B40C  A5 30     LDA  $30
 B40E  95 02     STA  $02, X
 B410  A5 31     LDA  $31
 B412  95 03     STA  $03, X
 B414  A9 80     LDA  #$80
 B416  04 32     TSB  $32
 B418  A5 0A     LDA  $0A
 B41A  3A        DEC  
 B41B  D0 03     BNE  $B420
 B41D  4C C8 B4  JMP  $B4C8
 B420  CA        DEX  
 B421  CA        DEX  
 B422  CA        DEX  
 B423  CA        DEX  
 B424  A5 08     LDA  $08
 B426  95 02     STA  $02, X
 B428  A5 09     LDA  $09
 B42A  95 03     STA  $03, X
 B42C  A5 0A     LDA  $0A
 B42E  95 00     STA  $00, X
 B430  A5 0B     LDA  $0B
 B432  95 01     STA  $01, X
 B434  20 C3 97  JSR  $97C3
 B437  20 5A A1  JSR  $A15A
 B43A  20 CF 97  JSR  $97CF
 B43D  20 5A A1  JSR  $A15A
 B440  4C 20 B5  JMP  $B520
 B443  B2 08     LDA  ($08)
 B445  C9 24     CMP  #$24
 B447  D0 1C     BNE  $B465
 B449  20 AF B8  JSR  $B8AF
 B44C  E8        INX  
 B44D  E8        INX  
 B44E  20 DC B8  JSR  $B8DC
 B451  20 5A A1  JSR  $A15A
 B454  A9 80     LDA  #$80
 B456  04 32     TSB  $32
 B458  A5 0A     LDA  $0A
 B45A  3A        DEC  
 B45B  D0 03     BNE  $B460
 B45D  4C C8 B4  JMP  $B4C8
 B460  A0 01     LDY  #$01
 B462  4C 9C B5  JMP  $B59C
 B465  B2 08     LDA  ($08)
 B467  C9 25     CMP  #$25
 B469  F0 04     BEQ  $B46F
 B46B  C9 2C     CMP  #$2C
 B46D  D0 17     BNE  $B486
 B46F  20 AF B8  JSR  $B8AF
 B472  A9 01     LDA  #$01
 B474  95 02     STA  $02, X
 B476  74 03     STZ  $03, X
 B478  E8        INX  
 B479  E8        INX  
 B47A  20 DC B8  JSR  $B8DC
 B47D  A9 80     LDA  #$80
 B47F  04 32     TSB  $32
 B481  A0 01     LDY  #$01
 B483  4C 9C B5  JMP  $B59C
 B486  B2 08     LDA  ($08)
 B488  C9 3B     CMP  #$3B
 B48A  D0 0D     BNE  $B499
 B48C  20 AF B8  JSR  $B8AF
 B48F  A5 30     LDA  $30
 B491  95 02     STA  $02, X
 B493  A5 31     LDA  $31
 B495  95 03     STA  $03, X
 B497  80 DF     BRA  $B478
 B499  20 53 A7  JSR  $A753
 B49C  20 53 A7  JSR  $A753
 B49F  CA        DEX  
 B4A0  CA        DEX  
 B4A1  CA        DEX  
 B4A2  CA        DEX  
 B4A3  A5 08     LDA  $08
 B4A5  95 02     STA  $02, X
 B4A7  A5 09     LDA  $09
 B4A9  95 03     STA  $03, X
 B4AB  A5 0A     LDA  $0A
 B4AD  95 00     STA  $00, X
 B4AF  A5 0B     LDA  $0B
 B4B1  95 01     STA  $01, X
 B4B3  20 69 A2  JSR  $A269
 B4B6  B5 00     LDA  $00, X
 B4B8  15 01     ORA  $01, X
 B4BA  D0 24     BNE  $B4E0
 B4BC  E8        INX  
 B4BD  E8        INX  
 B4BE  E8        INX  
 B4BF  E8        INX  
 B4C0  20 A0 8A  JSR  $8AA0
 B4C3  20 8E 96  JSR  $968E
 B4C6  E8        INX  
 B4C7  E8        INX  
 B4C8  20 5A A1  JSR  $A15A
 B4CB  20 BA B8  JSR  $B8BA
 B4CE  B0 03     BCS  $B4D3
 B4D0  4C 8C B8  JMP  $B88C
 B4D3  20 5A A1  JSR  $A15A
 B4D6  20 49 B9  JSR  $B949
 B4D9  A9 80     LDA  #$80
 B4DB  04 32     TSB  $32
 B4DD  4C 77 B7  JMP  $B777
 B4E0  20 CF 8D  JSR  $8DCF
 B4E3  CA        DEX  
 B4E4  CA        DEX  
 B4E5  A5 0A     LDA  $0A
 B4E7  95 00     STA  $00, X
 B4E9  A5 0B     LDA  $0B
 B4EB  95 01     STA  $01, X
 B4ED  20 EE 8E  JSR  $8EEE
 B4F0  B5 00     LDA  $00, X
 B4F2  15 01     ORA  $01, X
 B4F4  F0 0E     BEQ  $B504
 B4F6  8A        TXA  
 B4F7  18        CLC  
 B4F8  69 0A     ADC  #$0A
 B4FA  AA        TAX  
 B4FB  A9 80     LDA  #$80
 B4FD  14 32     TRB  $32
 B4FF  A0 00     LDY  #$00
 B501  4C 9C B5  JMP  $B59C
 B504  E8        INX  
 B505  E8        INX  
 B506  20 1C A3  JSR  $A31C
 B509  20 8E 96  JSR  $968E
 B50C  20 A0 8A  JSR  $8AA0
 B50F  B5 00     LDA  $00, X
 B511  95 06     STA  $06, X
 B513  B5 01     LDA  $01, X
 B515  95 07     STA  $07, X
 B517  E8        INX  
 B518  E8        INX  
 B519  20 44 9A  JSR  $9A44
 B51C  A9 80     LDA  #$80
 B51E  04 32     TSB  $32
 B520  A1 02     LDA  ($02, X)
 B522  C9 2C     CMP  #$2C
 B524  F0 0D     BEQ  $B533
 B526  38        SEC  
 B527  A5 0A     LDA  $0A
 B529  F5 00     SBC  $00, X
 B52B  A8        TAY  
 B52C  E8        INX  
 B52D  E8        INX  
 B52E  E8        INX  
 B52F  E8        INX  
 B530  4C 9C B5  JMP  $B59C
 B533  F6 02     INC  $02, X
 B535  D0 02     BNE  $B539
 B537  F6 03     INC  $03, X
 B539  B5 01     LDA  $01, X
 B53B  F0 02     BEQ  $B53F
 B53D  D6 01     DEC  $01, X
 B53F  D6 00     DEC  $00, X
 B541  A1 02     LDA  ($02, X)
 B543  C9 24     CMP  #$24
 B545  D0 14     BNE  $B55B
 B547  38        SEC  
 B548  A5 0A     LDA  $0A
 B54A  F5 02     SBC  $02, X
 B54C  A8        TAY  
 B54D  C8        INY  
 B54E  5A        PHY  
 B54F  8A        TXA  
 B550  18        CLC  
 B551  69 06     ADC  #$06
 B553  AA        TAX  
 B554  20 DC B8  JSR  $B8DC
 B557  7A        PLY  
 B558  4C 9C B5  JMP  $B59C
 B55B  20 1C A3  JSR  $A31C
 B55E  20 53 A7  JSR  $A753
 B561  20 53 A7  JSR  $A753
 B564  20 09 9B  JSR  $9B09
 B567  20 44 9A  JSR  $9A44
 B56A  20 CF 8D  JSR  $8DCF
 B56D  20 1C A3  JSR  $A31C
 B570  20 69 A2  JSR  $A269
 B573  20 CF 8D  JSR  $8DCF
 B576  20 44 9A  JSR  $9A44
 B579  20 EE 8E  JSR  $8EEE
 B57C  B5 00     LDA  $00, X
 B57E  15 01     ORA  $01, X
 B580  F0 08     BEQ  $B58A
 B582  8A        TXA  
 B583  18        CLC  
 B584  69 0C     ADC  #$0C
 B586  AA        TAX  
 B587  4C 90 B8  JMP  $B890
 B58A  E8        INX  
 B58B  E8        INX  
 B58C  38        SEC  
 B58D  A5 0A     LDA  $0A
 B58F  F5 00     SBC  $00, X
 B591  48        PHA  
 B592  20 5C A3  JSR  $A35C
 B595  20 A0 8A  JSR  $8AA0
 B598  20 62 96  JSR  $9662
 B59B  7A        PLY  
 B59C  B1 08     LDA  ($08), Y
 B59E  85 24     STA  $24
 B5A0  DA        PHX  
 B5A1  A2 00     LDX  #$00
 B5A3  BD 74 B9  LDA  $B974, X
 B5A6  F0 07     BEQ  $B5AF
 B5A8  C5 24     CMP  $24
 B5AA  F0 07     BEQ  $B5B3
 B5AC  E8        INX  
 B5AD  80 F4     BRA  $B5A3
 B5AF  FA        PLX  
 B5B0  4C 8C B8  JMP  $B88C
 B5B3  8A        TXA  
 B5B4  0A        ASL  
 B5B5  AA        TAX  
 B5B6  7C 7F B9  JMP  ($B97F, X)
 B5B9  E8        INX  
 B5BA  E8        INX  
 B5BB  E8        INX  
 B5BC  E8        INX  
 B5BD  4C D3 B3  JMP  $B3D3
 B5C0  64 0A     STZ  $0A
 B5C2  64 0B     STZ  $0B
 B5C4  20 5C A3  JSR  $A35C
 B5C7  60        RTS  
 B5C8  FA        PLX  
 B5C9  E8        INX  
 B5CA  E8        INX  
 B5CB  24 32     BIT  $32
 B5CD  30 08     BMI  $B5D7
 B5CF  A5 30     LDA  $30
 B5D1  95 00     STA  $00, X
 B5D3  A5 31     LDA  $31
 B5D5  95 01     STA  $01, X
 B5D7  20 12 B9  JSR  $B912
 B5DA  20 83 89  JSR  $8983
 B5DD  20 9E B8  JSR  $B89E
 B5E0  B2 08     LDA  ($08)
 B5E2  C9 2E     CMP  #$2E
 B5E4  D0 16     BNE  $B5FC
 B5E6  A4 0A     LDY  $0A
 B5E8  C0 01     CPY  #$01
 B5EA  D0 10     BNE  $B5FC
 B5EC  A4 0B     LDY  $0B
 B5EE  D0 0C     BNE  $B5FC
 B5F0  E8        INX  
 B5F1  E8        INX  
 B5F2  A9 40     LDA  #$40
 B5F4  04 32     TSB  $32
 B5F6  20 83 89  JSR  $8983
 B5F9  4C D3 B3  JMP  $B3D3
 B5FC  20 CF 8D  JSR  $8DCF
 B5FF  20 92 91  JSR  $9192
 B602  20 5A A1  JSR  $A15A
 B605  20 A0 8F  JSR  $8FA0
 B608  20 8E 87  JSR  $878E
 B60B  20 39 A3  JSR  $A339
 B60E  20 5A A1  JSR  $A15A
 B611  20 39 A1  JSR  $A139
 B614  20 92 91  JSR  $9192
 B617  A5 00     LDA  $00
 B619  18        CLC  
 B61A  69 04     ADC  #$04
 B61C  85 00     STA  $00
 B61E  90 02     BCC  $B622
 B620  E6 01     INC  $01
 B622  E6 30     INC  $30
 B624  D0 02     BNE  $B628
 B626  E6 31     INC  $31
 B628  20 92 91  JSR  $9192
 B62B  20 CF 8D  JSR  $8DCF
 B62E  CA        DEX  
 B62F  CA        DEX  
 B630  A5 08     LDA  $08
 B632  95 00     STA  $00, X
 B634  A5 09     LDA  $09
 B636  95 01     STA  $01, X
 B638  20 5A A1  JSR  $A15A
 B63B  CA        DEX  
 B63C  CA        DEX  
 B63D  A5 0A     LDA  $0A
 B63F  95 00     STA  $00, X
 B641  A5 0B     LDA  $0B
 B643  95 01     STA  $01, X
 B645  20 E2 95  JSR  $95E2
 B648  18        CLC  
 B649  A5 00     LDA  $00
 B64B  65 0A     ADC  $0A
 B64D  85 00     STA  $00
 B64F  90 06     BCC  $B657
 B651  A5 01     LDA  $01
 B653  65 0B     ADC  $0B
 B655  85 01     STA  $01
 B657  20 45 98  JSR  $9845
 B65A  20 39 A1  JSR  $A139
 B65D  20 CF 97  JSR  $97CF
 B660  20 CF 97  JSR  $97CF
 B663  20 CF 8D  JSR  $8DCF
 B666  A5 0A     LDA  $0A
 B668  95 02     STA  $02, X
 B66A  A5 0B     LDA  $0B
 B66C  95 03     STA  $03, X
 B66E  20 39 A1  JSR  $A139
 B671  20 83 89  JSR  $8983
 B674  4C DD B5  JMP  $B5DD
 B677  FA        PLX  
 B678  20 AF B8  JSR  $B8AF
 B67B  20 04 B9  JSR  $B904
 B67E  B5 00     LDA  $00, X
 B680  15 01     ORA  $01, X
 B682  D0 08     BNE  $B68C
 B684  20 45 98  JSR  $9845
 B687  20 C9 B6  JSR  $B6C9
 B68A  80 33     BRA  $B6BF
 B68C  20 BA B8  JSR  $B8BA
 B68F  B0 03     BCS  $B694
 B691  4C 8C B8  JMP  $B88C
 B694  20 64 A3  JSR  $A364
 B697  20 7D 91  JSR  $917D
 B69A  B5 00     LDA  $00, X
 B69C  15 01     ORA  $01, X
 B69E  D0 0D     BNE  $B6AD
 B6A0  E8        INX  
 B6A1  E8        INX  
 B6A2  20 CF 8D  JSR  $8DCF
 B6A5  20 C9 B6  JSR  $B6C9
 B6A8  20 C3 97  JSR  $97C3
 B6AB  80 E7     BRA  $B694
 B6AD  E8        INX  
 B6AE  E8        INX  
 B6AF  B5 02     LDA  $02, X
 B6B1  D0 02     BNE  $B6B5
 B6B3  D6 03     DEC  $03, X
 B6B5  D6 02     DEC  $02, X
 B6B7  B5 02     LDA  $02, X
 B6B9  85 30     STA  $30
 B6BB  B5 03     LDA  $03, X
 B6BD  85 31     STA  $31
 B6BF  A9 40     LDA  #$40
 B6C1  04 32     TSB  $32
 B6C3  20 83 89  JSR  $8983
 B6C6  4C B9 B5  JMP  $B5B9
 B6C9  20 CF 8D  JSR  $8DCF
 B6CC  20 12 B9  JSR  $B912
 B6CF  20 A0 8F  JSR  $8FA0
 B6D2  20 5A A1  JSR  $A15A
 B6D5  20 C3 97  JSR  $97C3
 B6D8  20 12 B9  JSR  $B912
 B6DB  20 39 A1  JSR  $A139
 B6DE  60        RTS  
 B6DF  FA        PLX  
 B6E0  A5 2E     LDA  $2E
 B6E2  05 2F     ORA  $2F
 B6E4  D0 08     BNE  $B6EE
 B6E6  CA        DEX  
 B6E7  CA        DEX  
 B6E8  74 00     STZ  $00, X
 B6EA  74 01     STZ  $01, X
 B6EC  80 21     BRA  $B70F
 B6EE  20 04 B9  JSR  $B904
 B6F1  24 32     BIT  $32
 B6F3  30 0C     BMI  $B701
 B6F5  CA        DEX  
 B6F6  CA        DEX  
 B6F7  A5 30     LDA  $30
 B6F9  95 00     STA  $00, X
 B6FB  A5 31     LDA  $31
 B6FD  95 01     STA  $01, X
 B6FF  80 0E     BRA  $B70F
 B701  B5 00     LDA  $00, X
 B703  15 01     ORA  $01, X
 B705  D0 05     BNE  $B70C
 B707  20 45 98  JSR  $9845
 B70A  80 03     BRA  $B70F
 B70C  20 CF 8D  JSR  $8DCF
 B70F  20 83 89  JSR  $8983
 B712  20 DA A4  JSR  $A4DA
 B715  20 83 89  JSR  $8983
 B718  4C B9 B5  JMP  $B5B9
 B71B  FA        PLX  
 B71C  24 32     BIT  $32
 B71E  30 17     BMI  $B737
 B720  20 83 89  JSR  $8983
 B723  20 1C A3  JSR  $A31C
 B726  20 09 9B  JSR  $9B09
 B729  20 CF 8D  JSR  $8DCF
 B72C  20 DA A4  JSR  $A4DA
 B72F  20 8E 96  JSR  $968E
 B732  20 44 9A  JSR  $9A44
 B735  80 11     BRA  $B748
 B737  20 45 98  JSR  $9845
 B73A  20 83 89  JSR  $8983
 B73D  20 DA A4  JSR  $A4DA
 B740  B5 02     LDA  $02, X
 B742  95 06     STA  $06, X
 B744  B5 03     LDA  $03, X
 B746  95 07     STA  $07, X
 B748  20 83 89  JSR  $8983
 B74B  4C B9 B5  JMP  $B5B9
 B74E  FA        PLX  
 B74F  E8        INX  
 B750  E8        INX  
 B751  24 32     BIT  $32
 B753  30 08     BMI  $B75D
 B755  A5 30     LDA  $30
 B757  95 00     STA  $00, X
 B759  A5 31     LDA  $31
 B75B  95 01     STA  $01, X
 B75D  B5 00     LDA  $00, X
 B75F  15 01     ORA  $01, X
 B761  F0 09     BEQ  $B76C
 B763  20 C3 97  JSR  $97C3
 B766  20 53 A7  JSR  $A753
 B769  20 38 95  JSR  $9538
 B76C  4C D7 B5  JMP  $B5D7
 B76F  FA        PLX  
 B770  A9 01     LDA  #$01
 B772  04 32     TSB  $32
 B774  80 05     BRA  $B77B
 B776  FA        PLX  
 B777  A9 01     LDA  #$01
 B779  14 32     TRB  $32
 B77B  20 AF B8  JSR  $B8AF
 B77E  20 04 B9  JSR  $B904
 B781  20 83 89  JSR  $8983
 B784  B5 00     LDA  $00, X
 B786  15 01     ORA  $01, X
 B788  D0 08     BNE  $B792
 B78A  20 45 98  JSR  $9845
 B78D  20 B3 B7  JSR  $B7B3
 B790  80 1E     BRA  $B7B0
 B792  20 64 A3  JSR  $A364
 B795  20 7D 91  JSR  $917D
 B798  B5 00     LDA  $00, X
 B79A  15 01     ORA  $01, X
 B79C  D0 10     BNE  $B7AE
 B79E  E8        INX  
 B79F  E8        INX  
 B7A0  20 45 98  JSR  $9845
 B7A3  20 B3 B7  JSR  $B7B3
 B7A6  F6 02     INC  $02, X
 B7A8  D0 02     BNE  $B7AC
 B7AA  F6 03     INC  $03, X
 B7AC  80 E4     BRA  $B792
 B7AE  E8        INX  
 B7AF  E8        INX  
 B7B0  4C B9 B5  JMP  $B5B9
 B7B3  A5 32     LDA  $32
 B7B5  4A        LSR  
 B7B6  90 0B     BCC  $B7C3
 B7B8  20 CF 8D  JSR  $8DCF
 B7BB  20 DA A4  JSR  $A4DA
 B7BE  A9 09     LDA  #$09
 B7C0  20 16 8E  JSR  $8E16
 B7C3  20 12 B9  JSR  $B912
 B7C6  20 52 B9  JSR  $B952
 B7C9  60        RTS  
 B7CA  FA        PLX  
 B7CB  24 32     BIT  $32
 B7CD  50 03     BVC  $B7D2
 B7CF  4C 8C B8  JMP  $B88C
 B7D2  4C C0 B5  JMP  $B5C0
 B7D5  FA        PLX  
 B7D6  4C C0 B5  JMP  $B5C0
 B7D9  FA        PLX  
 B7DA  20 AF B8  JSR  $B8AF
 B7DD  24 32     BIT  $32
 B7DF  30 13     BMI  $B7F4
 B7E1  B5 06     LDA  $06, X
 B7E3  15 07     ORA  $07, X
 B7E5  D0 03     BNE  $B7EA
 B7E7  4C 8C B8  JMP  $B88C
 B7EA  B5 06     LDA  $06, X
 B7EC  95 02     STA  $02, X
 B7EE  B5 07     LDA  $07, X
 B7F0  95 03     STA  $03, X
 B7F2  80 08     BRA  $B7FC
 B7F4  B5 02     LDA  $02, X
 B7F6  95 06     STA  $06, X
 B7F8  B5 03     LDA  $03, X
 B7FA  95 07     STA  $07, X
 B7FC  A9 2E     LDA  #$2E
 B7FE  95 00     STA  $00, X
 B800  A9 00     LDA  #$00
 B802  95 01     STA  $01, X
 B804  20 45 98  JSR  $9845
 B807  20 1C A3  JSR  $A31C
 B80A  20 A0 8F  JSR  $8FA0
 B80D  B5 00     LDA  $00, X
 B80F  15 01     ORA  $01, X
 B811  F0 55     BEQ  $B868
 B813  20 64 A3  JSR  $A364
 B816  20 4E A4  JSR  $A44E
 B819  20 CF 97  JSR  $97CF
 B81C  20 CF 97  JSR  $97CF
 B81F  20 CF 8D  JSR  $8DCF
 B822  20 A0 8F  JSR  $8FA0
 B825  20 5A A1  JSR  $A15A
 B828  20 CF 97  JSR  $97CF
 B82B  20 CF 97  JSR  $97CF
 B82E  20 A0 8F  JSR  $8FA0
 B831  20 8E 96  JSR  $968E
 B834  20 5A A1  JSR  $A15A
 B837  20 09 9B  JSR  $9B09
 B83A  20 CF 8D  JSR  $8DCF
 B83D  20 1C A3  JSR  $A31C
 B840  20 E2 95  JSR  $95E2
 B843  20 44 9A  JSR  $9A44
 B846  20 D4 A3  JSR  $A3D4
 B849  20 8E 96  JSR  $968E
 B84C  20 95 99  JSR  $9995
 B84F  20 CF 8D  JSR  $8DCF
 B852  CA        DEX  
 B853  CA        DEX  
 B854  A9 0A     LDA  #$0A
 B856  95 00     STA  $00, X
 B858  74 01     STZ  $01, X
 B85A  20 5A A1  JSR  $A15A
 B85D  20 39 A1  JSR  $A139
 B860  20 CF 97  JSR  $97CF
 B863  20 5A A1  JSR  $A15A
 B866  80 A2     BRA  $B80A
 B868  20 5A A1  JSR  $A15A
 B86B  20 44 9A  JSR  $9A44
 B86E  20 70 95  JSR  $9570
 B871  B5 00     LDA  $00, X
 B873  95 04     STA  $04, X
 B875  B5 01     LDA  $01, X
 B877  95 05     STA  $05, X
 B879  20 83 89  JSR  $8983
 B87C  20 CF 8D  JSR  $8DCF
 B87F  20 DA A4  JSR  $A4DA
 B882  20 83 89  JSR  $8983
 B885  A9 40     LDA  #$40
 B887  14 32     TRB  $32
 B889  4C B9 B5  JMP  $B5B9
 B88C  E8        INX  
 B88D  E8        INX  
 B88E  E8        INX  
 B88F  E8        INX  
 B890  20 83 89  JSR  $8983
 B893  A9 3F     LDA  #$3F
 B895  20 16 8E  JSR  $8E16
 B898  20 83 89  JSR  $8983
 B89B  4C D3 B3  JMP  $B3D3
 B89E  20 AA 9A  JSR  $9AAA
 B8A1  B5 00     LDA  $00, X
 B8A3  15 01     ORA  $01, X
 B8A5  D0 05     BNE  $B8AC
 B8A7  7A        PLY  
 B8A8  7A        PLY  
 B8A9  4C 8E B8  JMP  $B88E
 B8AC  E8        INX  
 B8AD  E8        INX  
 B8AE  60        RTS  
 B8AF  A5 2E     LDA  $2E
 B8B1  05 2F     ORA  $2F
 B8B3  D0 04     BNE  $B8B9
 B8B5  7A        PLY  
 B8B6  7A        PLY  
 B8B7  80 D7     BRA  $B890
 B8B9  60        RTS  
 B8BA  38        SEC  
 B8BB  B5 00     LDA  $00, X
 B8BD  15 01     ORA  $01, X
 B8BF  F0 19     BEQ  $B8DA
 B8C1  20 CF 8D  JSR  $8DCF
 B8C4  20 DC B8  JSR  $B8DC
 B8C7  20 5A A1  JSR  $A15A
 B8CA  20 88 93  JSR  $9388
 B8CD  B5 00     LDA  $00, X
 B8CF  15 01     ORA  $01, X
 B8D1  D0 05     BNE  $B8D8
 B8D3  E8        INX  
 B8D4  E8        INX  
 B8D5  38        SEC  
 B8D6  80 03     BRA  $B8DB
 B8D8  E8        INX  
 B8D9  E8        INX  
 B8DA  18        CLC  
 B8DB  60        RTS  
 B8DC  64 24     STZ  $24
 B8DE  64 25     STZ  $25
 B8E0  CA        DEX  
 B8E1  CA        DEX  
 B8E2  A9 2E     LDA  #$2E
 B8E4  95 00     STA  $00, X
 B8E6  A9 00     LDA  #$00
 B8E8  95 01     STA  $01, X
 B8EA  20 A0 8F  JSR  $8FA0
 B8ED  B5 00     LDA  $00, X
 B8EF  15 01     ORA  $01, X
 B8F1  F0 08     BEQ  $B8FB
 B8F3  E6 24     INC  $24
 B8F5  D0 02     BNE  $B8F9
 B8F7  E6 25     INC  $25
 B8F9  80 EF     BRA  $B8EA
 B8FB  A5 24     LDA  $24
 B8FD  95 00     STA  $00, X
 B8FF  A5 25     LDA  $25
 B901  95 01     STA  $01, X
 B903  60        RTS  
 B904  B5 02     LDA  $02, X
 B906  15 03     ORA  $03, X
 B908  D0 07     BNE  $B911
 B90A  24 32     BIT  $32
 B90C  10 03     BPL  $B911
 B90E  4C 8C B8  JMP  $B88C
 B911  60        RTS  
 B912  CA        DEX  
 B913  CA        DEX  
 B914  A9 2E     LDA  #$2E
 B916  95 00     STA  $00, X
 B918  A9 00     LDA  #$00
 B91A  95 01     STA  $01, X
 B91C  B5 02     LDA  $02, X
 B91E  15 03     ORA  $03, X
 B920  D0 05     BNE  $B927
 B922  20 62 96  JSR  $9662
 B925  80 21     BRA  $B948
 B927  20 A0 8F  JSR  $8FA0
 B92A  B5 00     LDA  $00, X
 B92C  15 01     ORA  $01, X
 B92E  D0 05     BNE  $B935
 B930  20 62 96  JSR  $9662
 B933  80 13     BRA  $B948
 B935  20 5A A1  JSR  $A15A
 B938  20 C3 97  JSR  $97C3
 B93B  B5 00     LDA  $00, X
 B93D  15 01     ORA  $01, X
 B93F  F0 05     BEQ  $B946
 B941  20 5A A1  JSR  $A15A
 B944  80 E1     BRA  $B927
 B946  E8        INX  
 B947  E8        INX  
 B948  60        RTS  
 B949  B5 02     LDA  $02, X
 B94B  85 30     STA  $30
 B94D  B5 03     LDA  $03, X
 B94F  85 31     STA  $31
 B951  60        RTS  
 B952  20 CF 97  JSR  $97CF
 B955  20 CF 97  JSR  $97CF
 B958  20 CF 8D  JSR  $8DCF
 B95B  20 CF 97  JSR  $97CF
 B95E  20 CF 97  JSR  $97CF
 B961  20 A0 8F  JSR  $8FA0
 B964  20 5A A1  JSR  $A15A
 B967  20 A0 8F  JSR  $8FA0
 B96A  20 5A A1  JSR  $A15A
 B96D  20 AF A4  JSR  $A4AF
 B970  20 83 89  JSR  $8983
 B973  60        RTS  
 B974  61 66 69 64 70 6E 3D 77 71 51 00 C8 B5 1B B7 4E  |afidpn=wqQ.....N|
 B984  B7 77 B6 76 B7 6F B7 DF B6 D9 B7 CA B7 D5 B7 20  |.w.v.o......... |
 B994  63 72 20 2E 28 20 54 61 6C 69 20 46 6F 72 74 68  |cr .( Tali Forth|
 B9A4  20 32 20 66 6F 72 20 74 68 65 20 36 35 63 30 32  | 2 for the 65c02|
 B9B4  29 20 63 72 20 2E 28 20 56 65 72 73 69 6F 6E 20  |) cr .( Version |
 B9C4  31 2E 30 20 32 34 2E 20 4A 61 6E 20 32 30 32 30  |1.0 24. Jan 2020|
 B9D4  20 29 20 63 72 20 2E 28 20 43 6F 70 79 72 69 67  | ) cr .( Copyrig|
 B9E4  68 74 20 32 30 31 34 2D 32 30 32 30 20 53 63 6F  |ht 2014-2020 Sco|
 B9F4  74 20 57 2E 20 53 74 65 76 65 6E 73 6F 6E 29 20  |t W. Stevenson) |
 BA04  63 72 20 2E 28 20 54 61 6C 69 20 46 6F 72 74 68  |cr .( Tali Forth|
 BA14  20 32 20 63 6F 6D 65 73 20 77 69 74 68 20 61 62  | 2 comes with ab|
 BA24  73 6F 6C 75 74 65 6C 79 20 4E 4F 20 57 41 52 52  |solutely NO WARR|
 BA34  41 4E 54 59 29 20 63 72 20 2E 28 20 54 79 70 65  |ANTY) cr .( Type|
 BA44  20 27 62 79 65 27 20 74 6F 20 65 78 69 74 29 20  | 'bye' to exit) |
 BA54  63 72 20 20 20 03 00 00 00 1D 86 20 86 62 79 65  |cr   ...... .bye|
 BA64  04 00 59 BA 30 80 F5 80 63 6F 6C 64 02 08 64 BA  |..Y.0...cold..d.|
 BA74  DD 8D E0 8D 65 64 03 08 70 BA 33 9C C0 9C 73 65  |....ed..p.3...se|
 BA84  65 05 00 7A BA E8 90 EE 90 66 6F 72 74 68 05 00  |e..z.....forth..|
 BA94  85 BA F7 97 21 98 6F 72 64 65 72 06 00 92 BA 09  |....!.order.....|
 BAA4  A3 1B A3 3E 6F 72 64 65 72 08 00 9F BA 07 9A 13  |...>order.......|
 BAB4  9A 70 72 65 76 69 6F 75 73 04 00 AD BA 50 83 5F  |.previous....P._|
 BAC4  83 61 6C 73 6F 04 00 BD BA D9 97 E4 97 6F 6E 6C  |.also........onl|
 BAD4  79 0E 00 C9 BA 53 A7 59 A7 66 6F 72 74 68 2D 77  |y....S.Y.forth-w|
 BAE4  6F 72 64 6C 69 73 74 0F 00 D5 BA BA 97 C2 97 65  |ordlist........e|
 BAF4  64 69 74 6F 72 2D 77 6F 72 64 6C 69 73 74 12 00  |ditor-wordlist..|
 BB04  EB BA 53 A3 5B A3 61 73 73 65 6D 62 6C 65 72 2D  |..S.[.assembler-|
 BB14  77 6F 72 64 6C 69 73 74 0D 00 02 BB 00 9B 08 9B  |wordlist........|
 BB24  72 6F 6F 74 2D 77 6F 72 64 6C 69 73 74 09 00 1C  |root-wordlist...|
 BB34  BB 54 91 7C 91 67 65 74 2D 6F 72 64 65 72 09 00  |.T.|.get-order..|
 BB44  31 BB CD 9C 00 9D 73 65 74 2D 6F 72 64 65 72 0B  |1.....set-order.|
 BB54  00 42 BB 49 91 53 91 67 65 74 2D 63 75 72 72 65  |.B.I.S.get-curre|
 BB64  6E 74 0B 10 53 BB C1 9C CC 9C 73 65 74 2D 63 75  |nt..S.....set-cu|
 BB74  72 72 65 6E 74 0F 10 66 BB 52 9B 32 9C 73 65 61  |rrent..f.R.2.sea|
 BB84  72 63 68 2D 77 6F 72 64 6C 69 73 74 08 00 79 BB  |rch-wordlist..y.|
 BB94  AD A6 C3 A6 77 6F 72 64 6C 69 73 74 0B 00 90 BB  |....wordlist....|
 BBA4  0D 8B 15 8B 64 65 66 69 6E 69 74 69 6F 6E 73 13  |....definitions.|
 BBB4  10 A0 BB 34 84 5C 85 62 6C 6F 63 6B 2D 72 61 6D  |...4.\.block-ram|
 BBC4  64 72 69 76 65 2D 69 6E 69 74 04 10 B3 BB 9D 93  |drive-init......|
 BBD4  A9 93 6C 69 73 74 04 10 CE BB 78 A1 BC A1 74 68  |..list....x...th|
 BBE4  72 75 04 10 DA BB D7 93 1A 94 6C 6F 61 64 05 00  |ru........load..|
 BBF4  E6 BB A7 90 B0 90 66 6C 75 73 68 0D 00 F2 BB 19  |......flush.....|
 BC04  8E 1F 8E 65 6D 70 74 79 2D 62 75 66 66 65 72 73  |...empty-buffers|
 BC14  06 00 FF BB D5 85 05 86 62 75 66 66 65 72 06 00  |........buffer..|
 BC24  14 BC 10 A6 18 A6 75 70 64 61 74 65 05 00 22 BC  |......update..".|
 BC34  E1 83 33 84 62 6C 6F 63 6B 0C 00 30 BC 70 9E 8A  |..3.block..0.p..|
 BC44  9E 73 61 76 65 2D 62 75 66 66 65 72 73 11 28 3D  |.save-buffers.(=|
 BC54  BC 6B 85 7A 85 62 6C 6F 63 6B 2D 72 65 61 64 2D  |.k.z.block-read-|
 BC64  76 65 63 74 6F 72 0A 28 51 BC 5D 85 6B 85 62 6C  |vector.(Q.].k.bl|
 BC74  6F 63 6B 2D 72 65 61 64 12 08 6A BC 8E 85 9D 85  |ock-read..j.....|
 BC84  62 6C 6F 63 6B 2D 77 72 69 74 65 2D 76 65 63 74  |block-write-vect|
 BC94  6F 72 0B 08 7C BC 80 85 8E 85 62 6C 6F 63 6B 2D  |or..|.....block-|
 BCA4  77 72 69 74 65 03 00 96 BC C3 83 D2 83 62 6C 6B  |write........blk|
 BCB4  03 00 A9 BC 8B 9E 9A 9E 73 63 72 09 00 B4 BC D3  |........scr.....|
 BCC4  83 E0 83 62 6C 6B 62 75 66 66 65 72 0C 00 BF BC  |...blkbuffer....|
 BCD4  C5 85 D4 85 62 75 66 66 62 6C 6F 63 6B 6E 75 6D  |....buffblocknum|
 BCE4  0A 00 D0 BC 0D 86 1C 86 62 75 66 66 73 74 61 74  |........buffstat|
 BCF4  75 73 07 00 E4 BC 06 86 0C 86 62 75 66 66 65 72  |us........buffer|
 BD04  3A 08 00 F6 BC 19 A6 23 A6 75 73 65 72 61 64 64  |:......#.useradd|
 BD14  72 09 04 05 BD A0 82 B8 82 61 63 74 69 6F 6E 2D  |r........action-|
 BD24  6F 66 02 04 15 BD 1B 93 33 93 69 73 06 00 26 BD  |of......3.is..&.|
 BD34  06 8B 0C 8B 64 65 66 65 72 21 06 00 30 BD FF 8A  |....defer!..0...|
 BD44  05 8B 64 65 66 65 72 40 07 0D 3E BD 20 8E 34 8E  |..defer@..>. .4.|
 BD54  65 6E 64 63 61 73 65 05 0D 4C BD E1 8D FA 8D 65  |endcase..L.....e|
 BD64  6E 64 6F 66 02 0D 5B BD A1 97 B9 97 6F 66 04 0D  |ndof..[.....of..|
 BD74  68 BD 53 A7 59 A7 63 61 73 65 05 0D 72 BD 3D A6  |h.S.Y.case..r.=.|
 BD84  50 A6 77 68 69 6C 65 05 0D 7E BD F5 A5 FF A5 75  |P.while..~.....u|
 BD94  6E 74 69 6C 06 0D 8B BD EC 9A F8 9A 72 65 70 65  |ntil........repe|
 BDA4  61 74 04 0D 98 BD E1 8D FA 8D 65 6C 73 65 04 0D  |at........else..|
 BDB4  A6 BD 6E A1 77 A1 74 68 65 6E 02 0D B2 BD 23 92  |..n.w.then....#.|
 BDC4  33 92 69 66 02 04 BE BD 78 8C 86 8C 2E 28 01 04  |3.if....x....(..|
 BDD4  C8 BD 81 98 90 98 28 04 10 D2 BD 67 A6 AC A6 77  |......(....g...w|
 BDE4  6F 72 64 04 10 DB BD B3 8F FA 8F 66 69 6E 64 0C  |ord........find.|
 BDF4  10 E7 BD 35 8E B1 8E 65 6E 76 69 72 6F 6E 6D 65  |...5...environme|
 BE04  6E 74 3F 06 18 F3 BD 9B 9E 39 9F 73 65 61 72 63  |nt?......9.searc|
 BE14  68 07 10 07 BE A8 87 0C 88 63 6F 6D 70 61 72 65  |h........compare|
 BE24  06 10 15 BE 5A 8B 60 8B 64 69 73 61 73 6D 02 00  |....Z.`.disasm..|
 BE34  24 BE C0 8C 03 8D 2E 73 04 10 32 BE 54 8D BA 8D  |$......s..2.T...|
 BE44  64 75 6D 70 04 00 3C BE B4 83 B9 83 62 65 6C 6C  |dump..<.....bell|
 BE54  05 00 48 BE DA 82 DA 82 61 6C 69 67 6E 07 00 54  |..H.....align..T|
 BE64  BE DA 82 DA 82 61 6C 69 67 6E 65 64 08 10 61 BE  |.....aligned..a.|
 BE74  20 A7 40 A7 77 6F 72 64 73 69 7A 65 05 00 70 BE  | .@.wordsize..p.|
 BE84  C4 A6 1F A7 77 6F 72 64 73 06 04 80 BE C9 94 06  |....words.......|
 BE94  95 6D 61 72 6B 65 72 05 10 8D BE 80 83 9D 83 61  |.marker........a|
 BEA4  74 2D 78 79 04 00 9B BE 63 98 80 98 70 61 67 65  |t-xy....c...page|
 BEB4  02 00 A8 BE 83 89 88 89 63 72 05 00 B4 BE 77 92  |........cr....w.|
 BEC4  81 92 69 6E 70 75 74 06 00 BE BE 3A 98 44 98 6F  |..input....:.D.o|
 BED4  75 74 70 75 74 04 10 CB BE 99 9F AD 9F 73 69 67  |utput........sig|
 BEE4  6E 04 10 D9 BE F7 91 08 92 68 6F 6C 64 02 10 E5  |n........hold...|
 BEF4  BE 6E 97 8F 97 23 3E 02 10 F1 BE 90 97 A0 97 23  |.n...#>........#|
 BF04  73 01 10 FB BE 39 97 6D 97 23 02 00 05 BF 7A 93  |s....9.m.#....z.|
 BF14  87 93 3C 23 03 00 0E BF 5E A2 68 A2 3E 69 6E 06  |..<#....^.h.>in.|
 BF24  10 18 BF 51 A6 66 A6 77 69 74 68 69 6E 08 10 23  |...Q.f.within..#|
 BF34  BF A4 91 F6 91 68 65 78 73 74 6F 72 65 06 10 31  |.....hexstore..1|
 BF44  BF 6C 86 B8 86 63 6C 65 61 76 65 03 00 41 BF 53  |.l...cleave..A.S|
 BF54  98 62 98 70 61 64 05 10 4F BF B9 86 F3 86 63 6D  |.b.pad..O.....cm|
 BF64  6F 76 65 06 10 5A BF F4 86 2E 87 63 6D 6F 76 65  |ove..Z.....cmove|
 BF74  3E 04 18 67 BF E2 95 00 96 6D 6F 76 65 01 04 75  |>..g.....move..u|
 BF84  BF 9E 83 A6 83 5C 02 10 81 BF 15 A1 1D A1 2A 2F  |.....\........*/|
 BF94  05 10 8A BF 1E A1 2D A1 2A 2F 6D 6F 64 03 10 94  |......-.*/mod...|
 BFA4  BF D9 95 E1 95 6D 6F 64 04 10 A1 BF B3 9F CA 9F  |.....mod........|
 BFB4  2F 6D 6F 64 01 10 AC BF AE 9F CA 9F 2F 06 10 B8  |/mod......../...|
 BFC4  BF B1 90 E7 90 66 6D 2F 6D 6F 64 06 10 C1 BF 87  |.....fm/mod.....|
 BFD4  A0 AF A0 73 6D 2F 72 65 6D 06 10 CF BF 66 A5 A7  |...sm/rem....f..|
 BFE4  A5 75 6D 2F 6D 6F 64 01 10 DD BF 0C A1 14 A1 2A  |.um/mod........*|
 BFF4  03 10 EB BF A8 A5 ED A5 75 6D 2A 02 10 F4 BF AE  |........um*.....|
 C004  94 C8 94 6D 2A 05 10 FF BF 6F 89 82 89 63 6F 75  |...m*....o...cou|
 C014  6E 74 07 00 09 C0 C5 8A CB 8A 64 65 63 69 6D 61  |nt........decima|
 C024  6C 03 00 16 C0 9D 91 A3 91 68 65 78 07 10 25 C0  |l........hex..%.|
 C034  69 A2 08 A3 3E 6E 75 6D 62 65 72 06 10 30 C0 AA  |i...>number..0..|
 C044  96 38 97 6E 75 6D 62 65 72 06 10 3F C0 25 8B 59  |.8.number..?.%.Y|
 C054  8B 64 69 67 69 74 3F 04 00 4D C0 A7 83 AF 83 62  |.digit?..M.....b|
 C064  61 73 65 08 10 5B C0 F5 90 48 91 65 76 61 6C 75  |ase..[...H.evalu|
 C074  61 74 65 05 00 67 C0 2E A1 38 A1 73 74 61 74 65  |ate..g...8.state|
 C084  05 17 77 C0 B9 82 D9 82 61 67 61 69 6E 05 07 84  |..w.....again...|
 C094  C0 B0 83 B3 83 62 65 67 69 6E 04 00 91 C0 B3 80  |.....begin......|
 C0A4  F5 80 71 75 69 74 07 0D 9E C0 6D 9A A9 9A 72 65  |..quit....m...re|
 C0B4  63 75 72 73 65 05 03 AA C0 70 93 75 93 6C 65 61  |curse....p.u.lea|
 C0C4  76 65 06 03 B9 C0 EE A5 F4 A5 75 6E 6C 6F 6F 70  |ve........unloop|
 C0D4  04 03 C6 C0 98 8F 99 8F 65 78 69 74 05 05 D4 C0  |........exit....|
 C0E4  22 94 88 94 2B 6C 6F 6F 70 04 05 E0 C0 1B 94 88  |"...+loop.......|
 C0F4  94 6C 6F 6F 70 01 03 ED C0 34 93 4D 93 6A 01 03  |.loop....4.M.j..|
 C104  F9 C0 09 92 22 92 69 03 0D 02 C1 7C 8B DC 8B 3F  |....".i....|...?|
 C114  64 6F 02 0D 0B C1 82 8B DC 8B 64 6F 06 0D 16 C1  |do........do....|
 C124  49 81 53 81 61 62 6F 72 74 22 05 00 20 C1 B1 80  |I.S.abort".. ...|
 C134  F5 80 61 62 6F 72 74 0F 00 2E C1 4F A1 59 A1 73  |..abort....O.Y.s|
 C144  74 72 69 70 2D 75 6E 64 65 72 66 6C 6F 77 08 00  |trip-underflow..|
 C154  3B C1 38 96 42 96 6E 63 2D 6C 69 6D 69 74 0C 00  |;.8.B.nc-limit..|
 C164  52 C1 44 83 4F 83 61 6C 6C 6F 77 2D 6E 61 74 69  |R.D.O.allow-nati|
 C174  76 65 0D 00 62 C1 60 83 6D 83 61 6C 77 61 79 73  |ve..b.`.m.always|
 C184  2D 6E 61 74 69 76 65 0C 00 76 C1 54 96 61 96 6E  |-native..v.T.a.n|
 C194  65 76 65 72 2D 6E 61 74 69 76 65 0C 00 8B C1 25  |ever-native....%|
 C1A4  89 30 89 63 6F 6D 70 69 6C 65 2D 6F 6E 6C 79 09  |.0.compile-only.|
 C1B4  00 9F C1 6B 92 76 92 69 6D 6D 65 64 69 61 74 65  |...k.v.immediate|
 C1C4  08 05 B3 C1 C8 99 06 9A 70 6F 73 74 70 6F 6E 65  |........postpone|
 C1D4  03 04 C4 C1 39 9B 42 9B 73 5C 22 02 0C D4 C1 01  |....9.B.s\".....|
 C1E4  9D 5D 9E 73 22 02 05 DF C1 87 8C 91 8C 2E 22 08  |.].s".........".|
 C1F4  15 E9 C1 EB 9F 5A A0 73 6C 69 74 65 72 61 6C 07  |.....Z.sliteral.|
 C204  15 F3 C1 AA 93 B7 93 6C 69 74 65 72 61 6C 01 04  |.......literal..|
 C214  03 C2 F9 9A FF 9A 5D 01 05 12 C2 75 93 79 93 5B  |......]....u.y.[|
 C224  08 18 1B C2 0D 88 24 89 63 6F 6D 70 69 6C 65 2C  |......$.compile,|
 C234  07 00 24 C2 72 87 8D 87 3A 6E 6F 6E 61 6D 65 01  |..$.r...:noname.|
 C244  05 34 C2 3A 9F 98 9F 3B 01 00 43 C2 2F 87 71 87  |.4.:...;..C./.q.|
 C254  3A 09 00 4C C2 C5 A0 CF A0 73 6F 75 72 63 65 2D  |:..L.....source-|
 C264  69 64 06 00 55 C2 B0 A0 C4 A0 73 6F 75 72 63 65  |id..U.....source|
 C274  0F 10 66 C2 71 8F 97 8F 65 78 65 63 75 74 65 2D  |..f.q...execute-|
 C284  70 61 72 73 69 6E 67 05 10 74 C2 EC 98 83 99 70  |parsing..t.....p|
 C294  61 72 73 65 0A 08 8B C2 91 98 83 99 70 61 72 73  |arse........pars|
 C2A4  65 2D 6E 61 6D 65 08 00 98 C2 5B 93 68 93 6C 61  |e-name....[.h.la|
 C2B4  74 65 73 74 6E 74 08 00 AA C2 69 93 6F 93 6C 61  |testnt....i.o.la|
 C2C4  74 65 73 74 78 74 05 00 BA C2 CC 8A FE 8A 64 65  |testxt........de|
 C2D4  66 65 72 05 10 CA C2 39 A2 5D A2 3E 62 6F 64 79  |fer....9.].>body|
 C2E4  0B 10 D7 C2 1E 96 37 96 6E 61 6D 65 3E 73 74 72  |......7.name>str|
 C2F4  69 6E 67 08 10 E4 C2 98 92 0A 93 69 6E 74 3E 6E  |ing........int>n|
 C304  61 6D 65 08 10 F7 C2 01 96 1D 96 6E 61 6D 65 3E  |ame........name>|
 C314  69 6E 74 03 05 07 C3 BE 85 C4 85 5B 27 5D 01 00  |int........[']..|
 C324  17 C3 BD A1 DC A1 27 09 10 22 C3 FB 8F A6 90 66  |......'..".....f|
 C334  69 6E 64 2D 6E 61 6D 65 04 10 2B C3 1A 8F 5C 8F  |ind-name..+...\.|
 C344  66 69 6C 6C 05 00 3C C3 0A 8F 5C 8F 62 6C 61 6E  |fill..<...\.blan|
 C354  6B 05 00 48 C3 14 8F 5C 8F 65 72 61 73 65 02 10  |k..H...\.erase..|
 C364  55 C3 7F 8A 9F 8A 64 2B 02 10 62 C3 5E 8A 7E 8A  |U.....d+..b.^.~.|
 C374  64 2D 03 10 6C C3 A0 8A A5 8A 64 3E 73 03 10 76  |d-..l.....d>s..v|
 C384  C3 5E 9E 6F 9E 73 3E 64 02 0C 81 C3 DD A1 38 A2  |.^.o.s>d......8.|
 C394  74 6F 05 10 8C C3 31 89 6E 89 76 61 6C 75 65 08  |to....1.n.value.|
 C3A4  10 96 C3 31 89 6E 89 63 6F 6E 73 74 61 6E 74 08  |...1.n.constant.|
 C3B4  00 A3 C3 24 A6 3C A6 76 61 72 69 61 62 6C 65 05  |...$.<.variable.|
 C3C4  05 B3 C3 15 8C 23 8C 64 6F 65 73 3E 06 00 C3 C3  |.....#.does>....|
 C3D4  89 89 5D 8A 63 72 65 61 74 65 05 10 D0 C3 DB 82  |..].create......|
 C3E4  43 83 61 6C 6C 6F 74 03 00 DE C3 4E 93 57 93 6B  |C.allot....N.W.k|
 C3F4  65 79 05 00 EB C3 16 8B 24 8B 64 65 70 74 68 06  |ey......$.depth.|
 C404  00 F6 C3 00 A6 0F A6 75 6E 75 73 65 64 07 08 03  |.......unused...|
 C414  C4 55 9A 6C 9A 72 3E 69 6E 70 75 74 07 08 11 C4  |.U.l.r>input....|
 C424  82 92 97 92 69 6E 70 75 74 3E 72 06 18 20 C4 7E  |....input>r.. .~|
 C434  81 76 82 61 63 63 65 70 74 06 00 2F C4 AA 9A EB  |.v.accept../....|
 C444  9A 72 65 66 69 6C 6C 07 10 3D C4 CB 9F EA 9F 2F  |.refill..=...../|
 C454  73 74 72 69 6E 67 08 10 4B C4 83 95 9B 95 2D 6C  |string..K.....-l|
 C464  65 61 64 69 6E 67 09 10 5A C4 9C 95 D8 95 2D 74  |eading..Z.....-t|
 C474  72 61 69 6C 69 6E 67 02 00 6A C4 BA 83 C2 83 62  |railing..j.....b|
 C484  6C 06 10 7B C4 D6 A0 0B A1 73 70 61 63 65 73 06  |l..{.....spaces.|
 C494  10 85 C4 9E 85 B6 85 62 6F 75 6E 64 73 02 10 93  |.......bounds...|
 C4A4  C4 20 86 2A 86 63 2C 07 10 A1 C4 61 8B 7B 8B 64  |. .*.c,....a.{.d|
 C4B4  6E 65 67 61 74 65 06 10 AB C4 43 96 53 96 6E 65  |negate....C.S.ne|
 C4C4  67 61 74 65 06 10 BA C4 0B 93 1A 93 69 6E 76 65  |gate........inve|
 C4D4  72 74 03 11 C8 C4 4E A4 6D A4 32 3E 72 03 01 D6  |rt....N.m.2>r...|
 C4E4  C4 D4 A3 F0 A3 32 72 3E 03 09 E1 C4 B6 A3 D3 A3  |.....2r>........|
 C4F4  32 72 40 08 14 EC C4 93 A4 9F A4 32 6C 69 74 65  |2r@........2lite|
 C504  72 61 6C 09 10 F7 C4 6E A4 92 A4 32 63 6F 6E 73  |ral....n...2cons|
 C514  74 61 6E 74 09 00 07 C5 A0 A4 AE A4 32 76 61 72  |tant........2var|
 C524  69 61 62 6C 65 02 10 18 C5 7C A3 9D A3 32 40 02  |iable....|...2@.|
 C534  10 29 C5 04 A4 29 A4 32 21 05 10 33 C5 9E A3 B5  |.)...).2!..3....|
 C544  A3 32 6F 76 65 72 05 10 3D C5 2A A4 4D A4 32 73  |.2over..=.*.M.2s|
 C554  77 61 70 05 10 4A C5 5C A3 63 A3 32 64 72 6F 70  |wap..J.\.c.2drop|
 C564  03 10 57 C5 38 95 53 95 6D 61 78 03 10 64 C5 54  |..W.8.S.max..d.T|
 C574  95 6F 95 6D 69 6E 02 10 6F C5 82 A7 91 A7 30 3C  |.o.min..o.....0<|
 C584  02 10 7A C5 6E A7 81 A7 30 3E 03 10 84 C5 92 A7  |..z.n...0>......|
 C594  A3 A7 30 3C 3E 02 10 8E C5 5A A7 6D A7 30 3D 01  |..0<>....Z.m.0=.|
 C5A4  10 99 C5 7D 91 91 91 3E 02 10 A3 C5 08 A5 1D A5  |...}...>........|
 C5B4  75 3E 02 10 AC C5 1E A5 33 A5 75 3C 01 10 B6 C5  |u>......3.u<....|
 C5C4  88 93 9C 93 3C 02 10 C0 C5 70 96 8D 96 3C 3E 01  |....<....p...<>.|
 C5D4  10 C9 C5 EE 8E 09 8F 3D 02 10 D3 C5 F1 A3 FB A3  |.......=........|
 C5E4  32 2F 02 10 DC C5 FC A3 03 A4 32 2A 02 10 E6 C5  |2/........2*....|
 C5F4  CF 97 D8 97 31 2B 02 10 F0 C5 C3 97 CE 97 31 2D  |....1+........1-|
 C604  04 00 FA C5 92 91 9C 91 68 65 72 65 05 10 04 C6  |........here....|
 C614  41 86 50 86 63 65 6C 6C 2B 05 00 10 C6 FC A3 03  |A.P.cell+.......|
 C624  A4 63 65 6C 6C 73 05 12 1D C6 68 86 6B 86 63 68  |.cells....h.k.ch|
 C634  61 72 73 05 00 2A C6 CF 97 D8 97 63 68 61 72 2B  |ars..*.....char+|
 C644  06 05 37 C6 B7 85 BD 85 5B 63 68 61 72 5D 04 00  |..7.....[char]..|
 C654  44 C6 51 86 67 86 63 68 61 72 04 00 52 C6 84 99  |D.Q.g.char..R...|
 C664  94 99 70 69 63 6B 06 10 5E C6 9A 94 AD 94 6C 73  |..pick..^.....ls|
 C674  68 69 66 74 06 10 6A C6 25 9B 38 9B 72 73 68 69  |hift..j.%.8.rshi|
 C684  66 74 03 10 78 C6 41 A7 52 A7 78 6F 72 02 10 86  |ft..x.A.R.xor...|
 C694  C6 E5 97 F6 97 6F 72 03 10 91 C6 6E 83 7F 83 61  |.....or....n...a|
 C6A4  6E 64 04 10 9B C6 A6 8A C4 8A 64 61 62 73 03 10  |nd........dabs..|
 C6B4  A6 C6 69 81 7D 81 61 62 73 01 10 B2 C6 70 95 82  |..i.}.abs....p..|
 C6C4  95 2D 01 10 BD C6 95 99 A7 99 2B 04 10 C6 C6 1B  |.-........+.....|
 C6D4  9A 2E 9A 3F 64 75 70 04 10 CF C6 64 A3 7B A3 32  |...?dup....d.{.2|
 C6E4  64 75 70 01 00 DB C6 53 A3 5B A3 32 01 00 E7 C6  |dup....S.[.2....|
 C6F4  BA 97 C2 97 31 01 00 F0 C6 53 A7 59 A7 30 05 00  |....1....S.Y.0..|
 C704  F9 C6 D0 A0 D5 A0 73 70 61 63 65 04 00 02 C7 30  |......space....0|
 C714  A3 38 A3 74 72 75 65 05 00 0F C7 99 8F 9F 8F 66  |.8.true........f|
 C724  61 6C 73 65 01 00 1B C7 14 9A 1A 9A 3F 04 10 28  |alse........?..(|
 C734  C7 47 A5 65 A5 75 64 2E 72 03 10 31 C7 34 A5 46  |.G.e.ud.r..1.4.F|
 C744  A5 75 64 2E 03 10 3D C7 23 8D 4D 8D 64 2E 72 02  |.ud...=.#.M.d.r.|
 C754  10 48 C7 04 8D 22 8D 64 2E 02 10 53 C7 92 8C BF  |.H...".d...S....|
 C764  8C 2E 72 03 10 5D C7 E6 A4 07 A5 75 2E 72 02 10  |..r..].....u.r..|
 C774  67 C7 DA A4 E5 A4 75 2E 01 10 72 C7 56 8C 77 8C  |g.....u...r.V.w.|
 C784  2E 04 10 7C C7 AF A4 D9 A4 74 79 70 65 04 18 85  |...|.....type...|
 C794  C7 0F 8E 19 8E 65 6D 69 74 07 10 91 C7 5D 8F 63  |.....emit....].c|
 C7A4  8F 65 78 65 63 75 74 65 02 10 9D C7 A8 99 C7 99  |.execute........|
 C7B4  2B 21 02 10 AC C7 35 86 40 86 63 21 02 10 B6 C7  |+!....5.@.c!....|
 C7C4  2B 86 34 86 63 40 01 10 C0 C7 8E 87 A7 87 2C 04  |+.4.c@........,.|
 C7D4  10 CA C7 39 A3 52 A3 74 75 63 6B 04 10 D3 C7 8E  |...9.R.tuck.....|
 C7E4  96 A9 96 2D 72 6F 74 03 10 DF C7 09 9B 24 9B 72  |...-rot......$.r|
 C7F4  6F 74 03 10 EB C7 62 96 6F 96 6E 69 70 02 01 F6  |ot....b.o.nip...|
 C804  C7 2F 9A 43 9A 72 40 02 01 01 C8 44 9A 54 9A 72  |./.C.r@....D.T.r|
 C814  3E 02 11 0B C8 1C A3 2F A3 3E 72 04 10 15 C8 45  |>....../.>r....E|
 C824  98 52 98 6F 76 65 72 01 10 1F C8 A0 8F B2 8F 40  |.R.over........@|
 C834  01 10 2B C8 39 A1 4E A1 21 04 10 34 C8 5A A1 6D  |..+.9.N.!..4.Z.m|
 C844  A1 73 77 61 70 03 10 3D C8 CF 8D DC 8D 64 75 70  |.swap..=.....dup|
 C854  04 10 49 C8 4E 8D 53 8D 64 72 6F 70 05 00 00 00  |..I.N.S.drop....|
 C864  C4 A6 1F A7 77 6F 72 64 73 0E 00 60 C8 53 A7 59  |....words..`.S.Y|
 C874  A7 66 6F 72 74 68 2D 77 6F 72 64 6C 69 73 74 05  |.forth-wordlist.|
 C884  00 6D C8 E8 90 EE 90 66 6F 72 74 68 09 00 83 C8  |.m.....forth....|
 C894  CD 9C 00 9D 73 65 74 2D 6F 72 64 65 72 0C 00 00  |....set-order...|
 C8A4  00 B1 A7 CC A7 65 6E 74 65 72 2D 73 63 72 65 65  |.....enter-scree|
 C8B4  6E 0C 00 A1 C8 CD A7 DE A7 65 72 61 73 65 2D 73  |n........erase-s|
 C8C4  63 72 65 65 6E 02 00 B5 C8 DF A7 F0 A7 65 6C 01  |creen........el.|
 C8D4  00 C9 C8 F1 A7 6C A8 6C 04 10 D3 C8 6D A8 85 A8  |.....l.l....m...|
 C8E4  6C 69 6E 65 01 00 DC C8 86 A8 CB A8 6F 05 04 FE  |line........o...|
 C8F4  C8 CC A8 D1 A8 61 64 63 2E 23 05 04 0B C9 D1 A8  |.....adc.#......|
 C904  D6 A8 61 64 63 2E 78 05 04 18 C9 D6 A8 DB A8 61  |..adc.x........a|
 C914  64 63 2E 79 05 04 25 C9 DB A8 E0 A8 61 64 63 2E  |dc.y..%.....adc.|
 C924  7A 06 04 33 C9 E0 A8 E5 A8 61 64 63 2E 7A 69 07  |z..3.....adc.zi.|
 C934  04 42 C9 E5 A8 EA A8 61 64 63 2E 7A 69 79 06 04  |.B.....adc.ziy..|
 C944  50 C9 EA A8 EF A8 61 64 63 2E 7A 78 07 04 5F C9  |P.....adc.zx.._.|
 C954  EF A8 F4 A8 61 64 63 2E 7A 78 69 04 04 6B C9 F4  |....adc.zxi..k..|
 C964  A8 F9 A8 61 6E 64 2E 05 04 78 C9 F9 A8 FE A8 61  |...and...x.....a|
 C974  6E 64 2E 23 05 04 85 C9 FE A8 03 A9 61 6E 64 2E  |nd.#........and.|
 C984  78 05 04 92 C9 03 A9 08 A9 61 6E 64 2E 79 05 04  |x........and.y..|
 C994  9F C9 08 A9 0D A9 61 6E 64 2E 7A 06 04 AD C9 0D  |......and.z.....|
 C9A4  A9 12 A9 61 6E 64 2E 7A 69 07 04 BC C9 12 A9 17  |...and.zi.......|
 C9B4  A9 61 6E 64 2E 7A 69 79 06 04 CA C9 17 A9 1C A9  |.and.ziy........|
 C9C4  61 6E 64 2E 7A 78 07 04 D9 C9 1C A9 21 A9 61 6E  |and.zx......!.an|
 C9D4  64 2E 7A 78 69 03 04 E4 C9 21 A9 26 A9 61 73 6C  |d.zxi....!.&.asl|
 C9E4  05 04 F1 C9 26 A9 2B A9 61 73 6C 2E 61 05 04 FE  |....&.+.asl.a...|
 C9F4  C9 2B A9 30 A9 61 73 6C 2E 78 05 04 0B CA 30 A9  |.+.0.asl.x....0.|
 CA04  35 A9 61 73 6C 2E 7A 06 04 19 CA 35 A9 3A A9 61  |5.asl.z....5.:.a|
 CA14  73 6C 2E 7A 78 03 04 24 CA 3A A9 3F A9 62 63 63  |sl.zx..$.:.?.bcc|
 CA24  03 04 2F CA 3F A9 46 A9 62 63 73 03 04 3A CA 46  |../.?.F.bcs..:.F|
 CA34  A9 4B A9 62 65 71 03 04 45 CA 4B A9 50 A9 62 69  |.K.beq..E.K.P.bi|
 CA44  74 05 04 52 CA 50 A9 55 A9 62 69 74 2E 23 05 04  |t..R.P.U.bit.#..|
 CA54  5F CA 55 A9 5A A9 62 69 74 2E 78 05 04 6C CA 5A  |_.U.Z.bit.x..l.Z|
 CA64  A9 5F A9 62 69 74 2E 7A 06 04 7A CA 5F A9 64 A9  |._.bit.z..z._.d.|
 CA74  62 69 74 2E 7A 78 03 04 85 CA 64 A9 69 A9 62 6D  |bit.zx....d.i.bm|
 CA84  69 03 04 90 CA 69 A9 6E A9 62 6E 65 03 04 9B CA  |i....i.n.bne....|
 CA94  6E A9 73 A9 62 70 6C 03 04 A6 CA 73 A9 78 A9 62  |n.s.bpl....s.x.b|
 CAA4  72 61 03 04 B1 CA 78 A9 7D A9 62 72 6B 03 04 BC  |ra....x.}.brk...|
 CAB4  CA 7D A9 82 A9 62 76 63 03 04 C7 CA 82 A9 87 A9  |.}...bvc........|
 CAC4  62 76 73 03 04 D2 CA 87 A9 8C A9 63 6C 63 03 04  |bvs........clc..|
 CAD4  DD CA 8C A9 91 A9 63 6C 64 03 04 E8 CA 91 A9 96  |......cld.......|
 CAE4  A9 63 6C 69 03 04 F3 CA 96 A9 9B A9 63 6C 76 03  |.cli........clv.|
 CAF4  04 FE CA 9B A9 A0 A9 63 6D 70 05 04 0B CB A0 A9  |.......cmp......|
 CB04  A5 A9 63 6D 70 2E 23 05 04 18 CB A5 A9 AA A9 63  |..cmp.#........c|
 CB14  6D 70 2E 78 05 04 25 CB AA A9 AF A9 63 6D 70 2E  |mp.x..%.....cmp.|
 CB24  79 05 04 32 CB AF A9 B4 A9 63 6D 70 2E 7A 06 04  |y..2.....cmp.z..|
 CB34  40 CB B4 A9 B9 A9 63 6D 70 2E 7A 69 07 04 4F CB  |@.....cmp.zi..O.|
 CB44  B9 A9 BE A9 63 6D 70 2E 7A 69 79 06 04 5D CB BE  |....cmp.ziy..]..|
 CB54  A9 C3 A9 63 6D 70 2E 7A 78 07 04 6C CB C3 A9 C8  |...cmp.zx..l....|
 CB64  A9 63 6D 70 2E 7A 78 69 03 04 77 CB C8 A9 CD A9  |.cmp.zxi..w.....|
 CB74  63 70 78 05 04 84 CB CD A9 D2 A9 63 70 78 2E 23  |cpx........cpx.#|
 CB84  05 04 91 CB D2 A9 D7 A9 63 70 78 2E 7A 03 04 9C  |........cpx.z...|
 CB94  CB D7 A9 DE A9 63 70 79 05 04 A9 CB DE A9 E3 A9  |.....cpy........|
 CBA4  63 70 79 2E 23 05 04 B6 CB E3 A9 E8 A9 63 70 79  |cpy.#........cpy|
 CBB4  2E 7A 03 04 C1 CB E8 A9 ED A9 64 65 63 05 04 CE  |.z........dec...|
 CBC4  CB ED A9 F2 A9 64 65 63 2E 61 05 04 DB CB F2 A9  |.....dec.a......|
 CBD4  F7 A9 64 65 63 2E 78 05 04 E8 CB F7 A9 FC A9 64  |..dec.x........d|
 CBE4  65 63 2E 7A 06 04 F6 CB FC A9 01 AA 64 65 63 2E  |ec.z........dec.|
 CBF4  7A 78 03 04 01 CC 01 AA 06 AA 64 65 78 03 04 0C  |zx........dex...|
 CC04  CC 06 AA 0B AA 64 65 79 03 04 17 CC 0B AA 10 AA  |.....dey........|
 CC14  65 6F 72 05 04 24 CC 10 AA 15 AA 65 6F 72 2E 23  |eor..$.....eor.#|
 CC24  05 04 31 CC 15 AA 1A AA 65 6F 72 2E 78 05 04 3E  |..1.....eor.x..>|
 CC34  CC 1A AA 1F AA 65 6F 72 2E 79 05 04 4B CC 1F AA  |.....eor.y..K...|
 CC44  24 AA 65 6F 72 2E 7A 06 04 59 CC 24 AA 29 AA 65  |$.eor.z..Y.$.).e|
 CC54  6F 72 2E 7A 69 07 04 68 CC 29 AA 2E AA 65 6F 72  |or.zi..h.)...eor|
 CC64  2E 7A 69 79 06 04 76 CC 2E AA 33 AA 65 6F 72 2E  |.ziy..v...3.eor.|
 CC74  7A 78 07 04 85 CC 33 AA 38 AA 65 6F 72 2E 7A 78  |zx....3.8.eor.zx|
 CC84  69 03 04 90 CC 38 AA 3D AA 69 6E 63 05 04 9D CC  |i....8.=.inc....|
 CC94  3D AA 42 AA 69 6E 63 2E 61 05 04 AA CC 42 AA 47  |=.B.inc.a....B.G|
 CCA4  AA 69 6E 63 2E 78 05 04 B7 CC 47 AA 4C AA 69 6E  |.inc.x....G.L.in|
 CCB4  63 2E 7A 06 04 C5 CC 4C AA 51 AA 69 6E 63 2E 7A  |c.z....L.Q.inc.z|
 CCC4  78 03 04 D0 CC 51 AA 56 AA 69 6E 78 03 04 DB CC  |x....Q.V.inx....|
 CCD4  56 AA 5B AA 69 6E 79 03 04 E6 CC 5B AA 60 AA 6A  |V.[.iny....[.`.j|
 CCE4  6D 70 05 04 F3 CC 60 AA 65 AA 6A 6D 70 2E 69 06  |mp....`.e.jmp.i.|
 CCF4  04 01 CD 65 AA 6A AA 6A 6D 70 2E 78 69 03 04 0C  |...e.j.jmp.xi...|
 CD04  CD 6A AA 6F AA 6A 73 72 03 04 17 CD 6F AA 74 AA  |.j.o.jsr....o.t.|
 CD14  6C 64 61 05 04 24 CD 74 AA 79 AA 6C 64 61 2E 23  |lda..$.t.y.lda.#|
 CD24  05 04 31 CD 79 AA 7E AA 6C 64 61 2E 78 05 04 3E  |..1.y.~.lda.x..>|
 CD34  CD 7E AA 83 AA 6C 64 61 2E 79 05 04 4B CD 83 AA  |.~...lda.y..K...|
 CD44  88 AA 6C 64 61 2E 7A 06 04 59 CD 88 AA 8D AA 6C  |..lda.z..Y.....l|
 CD54  64 61 2E 7A 69 07 04 68 CD 8D AA 92 AA 6C 64 61  |da.zi..h.....lda|
 CD64  2E 7A 69 79 06 04 76 CD 92 AA 97 AA 6C 64 61 2E  |.ziy..v.....lda.|
 CD74  7A 78 07 04 85 CD 97 AA 9C AA 6C 64 61 2E 7A 78  |zx........lda.zx|
 CD84  69 03 04 90 CD 9C AA A1 AA 6C 64 78 05 04 9D CD  |i........ldx....|
 CD94  A1 AA A6 AA 6C 64 78 2E 23 05 04 AA CD A6 AA AB  |....ldx.#.......|
 CDA4  AA 6C 64 78 2E 79 05 04 B7 CD AB AA B0 AA 6C 64  |.ldx.y........ld|
 CDB4  78 2E 7A 06 04 C5 CD B0 AA B5 AA 6C 64 78 2E 7A  |x.z........ldx.z|
 CDC4  79 03 04 D0 CD B5 AA BA AA 6C 64 79 05 04 DD CD  |y........ldy....|
 CDD4  BA AA BF AA 6C 64 79 2E 23 05 04 EA CD BF AA C4  |....ldy.#.......|
 CDE4  AA 6C 64 79 2E 78 05 04 F7 CD C4 AA C9 AA 6C 64  |.ldy.x........ld|
 CDF4  79 2E 7A 06 04 05 CE C9 AA CE AA 6C 64 79 2E 7A  |y.z........ldy.z|
 CE04  78 03 04 10 CE CE AA D3 AA 6C 73 72 05 04 1D CE  |x........lsr....|
 CE14  D3 AA D8 AA 6C 73 72 2E 61 05 04 2A CE D8 AA DD  |....lsr.a..*....|
 CE24  AA 6C 73 72 2E 78 05 04 37 CE DD AA E2 AA 6C 73  |.lsr.x..7.....ls|
 CE34  72 2E 7A 06 04 45 CE E2 AA E7 AA 6C 73 72 2E 7A  |r.z..E.....lsr.z|
 CE44  78 03 04 50 CE E7 AA EC AA 6E 6F 70 03 04 5B CE  |x..P.....nop..[.|
 CE54  EC AA F1 AA 6F 72 61 05 04 68 CE F1 AA F6 AA 6F  |....ora..h.....o|
 CE64  72 61 2E 23 05 04 75 CE F6 AA FB AA 6F 72 61 2E  |ra.#..u.....ora.|
 CE74  78 05 04 82 CE FB AA 00 AB 6F 72 61 2E 79 05 04  |x........ora.y..|
 CE84  8F CE 00 AB 05 AB 6F 72 61 2E 7A 06 04 9D CE 05  |......ora.z.....|
 CE94  AB 0C AB 6F 72 61 2E 7A 69 07 04 AC CE 0C AB 11  |...ora.zi.......|
 CEA4  AB 6F 72 61 2E 7A 69 79 06 04 BA CE 11 AB 16 AB  |.ora.ziy........|
 CEB4  6F 72 61 2E 7A 78 07 04 C9 CE 16 AB 1B AB 6F 72  |ora.zx........or|
 CEC4  61 2E 7A 78 69 03 04 D4 CE 1B AB 20 AB 70 68 61  |a.zxi...... .pha|
 CED4  03 04 DF CE 20 AB 25 AB 70 68 70 03 04 EA CE 25  |.... .%.php....%|
 CEE4  AB 2A AB 70 68 78 03 04 F5 CE 2A AB 2F AB 70 68  |.*.phx....*./.ph|
 CEF4  79 03 04 00 CF 2F AB 34 AB 70 6C 61 03 04 0B CF  |y..../.4.pla....|
 CF04  34 AB 39 AB 70 6C 70 03 04 16 CF 39 AB 3E AB 70  |4.9.plp....9.>.p|
 CF14  6C 78 03 04 21 CF 3E AB 43 AB 70 6C 79 03 04 2C  |lx..!.>.C.ply..,|
 CF24  CF 43 AB 48 AB 72 6F 6C 05 04 39 CF 48 AB 4D AB  |.C.H.rol..9.H.M.|
 CF34  72 6F 6C 2E 61 05 04 46 CF 4D AB 52 AB 72 6F 6C  |rol.a..F.M.R.rol|
 CF44  2E 78 05 04 53 CF 52 AB 57 AB 72 6F 6C 2E 7A 06  |.x..S.R.W.rol.z.|
 CF54  04 61 CF 57 AB 5C AB 72 6F 6C 2E 7A 78 03 04 6C  |.a.W.\.rol.zx..l|
 CF64  CF 5C AB 61 AB 72 6F 72 05 04 79 CF 61 AB 66 AB  |.\.a.ror..y.a.f.|
 CF74  72 6F 72 2E 61 05 04 86 CF 66 AB 6B AB 72 6F 72  |ror.a....f.k.ror|
 CF84  2E 78 05 04 93 CF 6B AB 70 AB 72 6F 72 2E 7A 06  |.x....k.p.ror.z.|
 CF94  04 A1 CF 70 AB 75 AB 72 6F 72 2E 7A 78 03 04 AC  |...p.u.ror.zx...|
 CFA4  CF 75 AB 7A AB 72 74 69 03 04 B7 CF 7A AB 7F AB  |.u.z.rti....z...|
 CFB4  72 74 73 03 04 C2 CF 7F AB 84 AB 73 62 63 05 04  |rts........sbc..|
 CFC4  CF CF 84 AB 89 AB 73 62 63 2E 23 05 04 DC CF 89  |......sbc.#.....|
 CFD4  AB 8E AB 73 62 63 2E 78 05 04 E9 CF 8E AB 93 AB  |...sbc.x........|
 CFE4  73 62 63 2E 79 05 04 F6 CF 93 AB 98 AB 73 62 63  |sbc.y........sbc|
 CFF4  2E 7A 06 04 04 D0 98 AB 9D AB 73 62 63 2E 7A 69  |.z........sbc.zi|
 D004  07 04 13 D0 9D AB A2 AB 73 62 63 2E 7A 69 79 06  |........sbc.ziy.|
 D014  04 21 D0 A2 AB A7 AB 73 62 63 2E 7A 78 07 04 30  |.!.....sbc.zx..0|
 D024  D0 A7 AB AB AB 73 62 63 2E 7A 78 69 03 04 3B D0  |.....sbc.zxi..;.|
 D034  AB AB AF AB 73 65 63 03 04 46 D0 AF AB B3 AB 73  |....sec..F.....s|
 D044  65 64 03 04 51 D0 B3 AB B7 AB 73 65 69 03 04 5C  |ed..Q.....sei..\|
 D054  D0 B7 AB BB AB 73 74 61 05 04 69 D0 BB AB BF AB  |.....sta..i.....|
 D064  73 74 61 2E 78 05 04 76 D0 BF AB C3 AB 73 74 61  |sta.x..v.....sta|
 D074  2E 79 05 04 83 D0 C3 AB C7 AB 73 74 61 2E 7A 06  |.y........sta.z.|
 D084  04 91 D0 C7 AB CB AB 73 74 61 2E 7A 69 07 04 A0  |.......sta.zi...|
 D094  D0 CB AB CF AB 73 74 61 2E 7A 69 79 06 04 AE D0  |.....sta.ziy....|
 D0A4  CF AB D3 AB 73 74 61 2E 7A 78 07 04 BD D0 D3 AB  |....sta.zx......|
 D0B4  D7 AB 73 74 61 2E 7A 78 69 03 04 C8 D0 D7 AB DB  |..sta.zxi.......|
 D0C4  AB 73 74 78 05 04 D5 D0 DB AB DF AB 73 74 78 2E  |.stx........stx.|
 D0D4  7A 06 04 E3 D0 DF AB E3 AB 73 74 78 2E 7A 79 03  |z........stx.zy.|
 D0E4  04 EE D0 E3 AB E7 AB 73 74 79 05 04 FB D0 E7 AB  |.......sty......|
 D0F4  EB AB 73 74 79 2E 7A 06 04 09 D1 EB AB EF AB 73  |..sty.z........s|
 D104  74 79 2E 7A 78 03 04 14 D1 EF AB F3 AB 73 74 7A  |ty.zx........stz|
 D114  05 04 21 D1 F3 AB F7 AB 73 74 7A 2E 78 05 04 2E  |..!.....stz.x...|
 D124  D1 F7 AB FB AB 73 74 7A 2E 7A 06 04 3C D1 FB AB  |.....stz.z..<...|
 D134  FF AB 73 74 7A 2E 7A 78 03 04 47 D1 FF AB 03 AC  |..stz.zx..G.....|
 D144  74 61 78 03 04 52 D1 03 AC 07 AC 74 61 79 03 04  |tax..R.....tay..|
 D154  5D D1 07 AC 0B AC 74 72 62 05 04 6A D1 0B AC 0F  |].....trb..j....|
 D164  AC 74 72 62 2E 7A 03 04 75 D1 0F AC 13 AC 74 73  |.trb.z..u.....ts|
 D174  62 05 04 82 D1 13 AC 17 AC 74 73 62 2E 7A 03 04  |b........tsb.z..|
 D184  8D D1 17 AC 1B AC 74 73 78 03 04 98 D1 1B AC 1F  |......tsx.......|
 D194  AC 74 78 61 03 04 A3 D1 1F AC 23 AC 74 78 73 03  |.txa......#.txs.|
 D1A4  04 AE D1 23 AC 27 AC 74 79 61 03 04 B9 D1 92 91  |...#.'.tya......|
 D1B4  9C 91 2D 2D 3E 02 04 C3 D1 78 AC 78 AC 3C 6A 02  |..-->....x.x.<j.|
 D1C4  04 CD D1 79 AC 81 AC 3C 62 06 04 00 00 61 AC 70  |...y...<b....a.p|
 D1D4  AC 70 75 73 68 2D 61 F5 D1 F9 D1 03 D2 69 D2 0E  |.push-a......i..|
 D1E4  D2 32 D2 61 D2 56 D2 70 D2 76 D2 92 D2 97 D2 9C  |.2.a.V.p.v......|
 D1F4  D2 20 6F 6B 00 20 63 6F 6D 70 69 6C 65 64 00 72  |. ok. compiled.r|
 D204  65 64 65 66 69 6E 65 64 20 00 30 31 32 33 34 35  |edefined .012345|
 D214  36 37 38 39 61 62 63 64 65 66 67 68 69 6A 6B 6C  |6789abcdefghijkl|
 D224  6D 6E 6F 70 71 72 73 74 75 76 77 78 79 7A 30 31  |mnopqrstuvwxyz01|
 D234  32 33 34 35 36 37 38 39 41 42 43 44 45 46 47 48  |23456789ABCDEFGH|
 D244  49 4A 4B 4C 4D 4E 4F 50 51 52 53 54 55 56 57 58  |IJKLMNOPQRSTUVWX|
 D254  59 5A 41 73 73 65 6D 62 6C 65 72 20 00 45 64 69  |YZAssembler .Edi|
 D264  74 6F 72 20 00 46 6F 72 74 68 20 00 52 6F 6F 74  |tor .Forth .Root|
 D274  20 00 66 6C 61 67 73 20 28 43 4F 20 41 4E 20 49  | .flags (CO AN I|
 D284  4D 20 4E 4E 20 55 46 20 48 43 29 3A 20 00 6E 74  |M NN UF HC): .nt|
 D294  3A 20 00 78 74 3A 20 00 73 69 7A 65 20 28 64 65  |: .xt: .size (de|
 D2A4  63 69 6D 61 6C 29 3A 20 00 C7 D2 E8 D2 08 D3 29  |cimal): .......)|
 D2B4  D3 46 D3 57 D3 67 D3 95 D3 AD D3 BC D3 CC D3 E8  |.F.W.g..........|
 D2C4  D3 FF D3 41 4C 4C 4F 54 20 75 73 69 6E 67 20 61  |...ALLOT using a|
 D2D4  6C 6C 20 61 76 61 69 6C 61 62 6C 65 20 6D 65 6D  |ll available mem|
 D2E4  6F 72 79 00 49 6C 6C 65 67 61 6C 20 53 4F 55 52  |ory.Illegal SOUR|
 D2F4  43 45 2D 49 44 20 64 75 72 69 6E 67 20 52 45 46  |CE-ID during REF|
 D304  49 4C 4C 00 49 6E 74 65 72 70 72 65 74 69 6E 67  |ILL.Interpreting|
 D314  20 61 20 63 6F 6D 70 69 6C 65 2D 6F 6E 6C 79 20  | a compile-only |
 D324  77 6F 72 64 00 44 45 46 45 52 65 64 20 77 6F 72  |word.DEFERed wor|
 D334  64 20 6E 6F 74 20 64 65 66 69 6E 65 64 20 79 65  |d not defined ye|
 D344  74 00 44 69 76 69 73 69 6F 6E 20 62 79 20 7A 65  |t.Division by ze|
 D354  72 6F 00 50 61 72 73 69 6E 67 20 66 61 69 6C 75  |ro.Parsing failu|
 D364  72 65 00 51 55 49 54 20 63 6F 75 6C 64 20 6E 6F  |re.QUIT could no|
 D374  74 20 67 65 74 20 69 6E 70 75 74 20 28 52 45 46  |t get input (REF|
 D384  49 4C 4C 20 72 65 74 75 72 6E 65 64 20 2D 31 29  |ILL returned -1)|
 D394  00 41 6C 72 65 61 64 79 20 69 6E 20 63 6F 6D 70  |.Already in comp|
 D3A4  69 6C 65 20 6D 6F 64 65 00 55 6E 64 65 66 69 6E  |ile mode.Undefin|
 D3B4  65 64 20 77 6F 72 64 00 53 74 61 63 6B 20 75 6E  |ed word.Stack un|
 D3C4  64 65 72 66 6C 6F 77 00 4D 61 78 20 6D 65 6D 6F  |derflow.Max memo|
 D3D4  72 79 20 66 72 65 65 64 20 77 69 74 68 20 41 4C  |ry freed with AL|
 D3E4  4C 4F 54 00 4E 6F 20 77 6F 72 64 6C 69 73 74 73  |LOT.No wordlists|
 D3F4  20 61 76 61 69 6C 61 62 6C 65 00 50 6C 65 61 73  | available.Pleas|
 D404  65 20 61 73 73 69 67 6E 20 76 65 63 74 6F 72 73  |e assign vectors|
 D414  20 42 4C 4F 43 4B 2D 52 45 41 44 2D 56 45 43 54  | BLOCK-READ-VECT|
 D424  4F 52 20 61 6E 64 20 42 4C 4F 43 4B 2D 57 52 49  |OR and BLOCK-WRI|
 D434  54 45 2D 56 45 43 54 4F 52 00 0F 2F 43 4F 55 4E  |TE-VECTOR../COUN|
 D444  54 45 44 2D 53 54 52 49 4E 47 05 2F 48 4F 4C 44  |TED-STRING./HOLD|
 D454  04 2F 50 41 44 11 41 44 44 52 45 53 53 2D 55 4E  |./PAD.ADDRESS-UN|
 D464  49 54 2D 42 49 54 53 07 46 4C 4F 4F 52 45 44 08  |IT-BITS.FLOORED.|
 D474  4D 41 58 2D 43 48 41 52 05 4D 41 58 2D 4E 05 4D  |MAX-CHAR.MAX-N.M|
 D484  41 58 2D 55 12 52 45 54 55 52 4E 2D 53 54 41 43  |AX-U.RETURN-STAC|
 D494  4B 2D 43 45 4C 4C 53 0B 53 54 41 43 4B 2D 43 45  |K-CELLS.STACK-CE|
 D4A4  4C 4C 53 09 57 4F 52 44 4C 49 53 54 53 05 4D 41  |LLS.WORDLISTS.MA|
 D4B4  58 2D 44 06 4D 41 58 2D 55 44                    |X-D.MAX-UD      |
 D4BE  48        PHA  
 D4BF  A9 20     LDA  #$20
 D4C1  80 03     BRA  $D4C6
 D4C3  48        PHA  
 D4C4  A9 4C     LDA  #$4C
 D4C6  20 CE D4  JSR  $D4CE
 D4C9  68        PLA  
 D4CA  20 CE D4  JSR  $D4CE
 D4CD  98        TYA  
 D4CE  92 00     STA  ($00)
 D4D0  E6 00     INC  $00
 D4D2  D0 02     BNE  $D4D6
 D4D4  E6 01     INC  $01
 D4D6  60        RTS  
 D4D7  CA        DEX  
 D4D8  CA        DEX  
 D4D9  68        PLA  
 D4DA  85 24     STA  $24
 D4DC  68        PLA  
 D4DD  85 25     STA  $25
 D4DF  A0 01     LDY  #$01
 D4E1  B1 24     LDA  ($24), Y
 D4E3  95 00     STA  $00, X
 D4E5  C8        INY  
 D4E6  B1 24     LDA  ($24), Y
 D4E8  95 01     STA  $01, X
 D4EA  60        RTS  
 D4EB  68        PLA  
 D4EC  85 24     STA  $24
 D4EE  68        PLA  
 D4EF  85 25     STA  $25
 D4F1  A0 01     LDY  #$01
 D4F3  B1 24     LDA  ($24), Y
 D4F5  85 26     STA  $26
 D4F7  C8        INY  
 D4F8  B1 24     LDA  ($24), Y
 D4FA  85 27     STA  $27
 D4FC  6C 26 00  JMP  ($0026)
 D4FF  A9 03     LDA  #$03
 D501  4C 31 D6  JMP  $D631
 D504  7A        PLY  
 D505  68        PLA  
 D506  C8        INY  
 D507  D0 01     BNE  $D50A
 D509  1A        INC  
 D50A  84 26     STY  $26
 D50C  85 27     STA  $27
 D50E  CA        DEX  
 D50F  CA        DEX  
 D510  7A        PLY  
 D511  68        PLA  
 D512  C8        INY  
 D513  D0 01     BNE  $D516
 D515  1A        INC  
 D516  94 00     STY  $00, X
 D518  95 01     STA  $01, X
 D51A  6C 26 00  JMP  ($0026)
 D51D  7A        PLY  
 D51E  68        PLA  
 D51F  C8        INY  
 D520  D0 01     BNE  $D523
 D522  1A        INC  
 D523  CA        DEX  
 D524  CA        DEX  
 D525  95 01     STA  $01, X
 D527  98        TYA  
 D528  95 00     STA  $00, X
 D52A  60        RTS  
 D52B  48        PHA  
 D52C  4A        LSR  
 D52D  4A        LSR  
 D52E  4A        LSR  
 D52F  4A        LSR  
 D530  20 34 D5  JSR  $D534
 D533  68        PLA  
 D534  29 0F     AND  #$0F
 D536  09 30     ORA  #$30
 D538  C9 3A     CMP  #$3A
 D53A  90 02     BCC  $D53E
 D53C  69 06     ADC  #$06
 D53E  4C 16 8E  JMP  $8E16
 D541  60        RTS  
 D542  B5 00     LDA  $00, X
 D544  D5 02     CMP  $02, X
 D546  F0 0A     BEQ  $D552
 D548  B5 01     LDA  $01, X
 D54A  F5 03     SBC  $03, X
 D54C  09 01     ORA  #$01
 D54E  70 08     BVS  $D558
 D550  80 08     BRA  $D55A
 D552  B5 01     LDA  $01, X
 D554  F5 03     SBC  $03, X
 D556  50 04     BVC  $D55C
 D558  49 80     EOR  #$80
 D55A  09 01     ORA  #$01
 D55C  60        RTS  
 D55D  A0 04     LDY  #$04
 D55F  B1 1E     LDA  ($1E), Y
 D561  0A        ASL  
 D562  18        CLC  
 D563  69 06     ADC  #$06
 D565  A8        TAY  
 D566  B1 1E     LDA  ($1E), Y
 D568  85 02     STA  $02
 D56A  C8        INY  
 D56B  B1 1E     LDA  ($1E), Y
 D56D  85 03     STA  $03
 D56F  60        RTS  
 D570  A0 04     LDY  #$04
 D572  B1 1E     LDA  ($1E), Y
 D574  0A        ASL  
 D575  18        CLC  
 D576  69 06     ADC  #$06
 D578  A8        TAY  
 D579  A5 02     LDA  $02
 D57B  91 1E     STA  ($1E), Y
 D57D  C8        INY  
 D57E  A5 03     LDA  $03
 D580  91 1E     STA  ($1E), Y
 D582  60        RTS  
 D583  20 91 98  JSR  $9891
 D586  B5 00     LDA  $00, X
 D588  15 01     ORA  $01, X
 D58A  F0 70     BEQ  $D5FC
 D58C  20 64 A3  JSR  $A364
 D58F  20 FB 8F  JSR  $8FFB
 D592  B5 00     LDA  $00, X
 D594  15 01     ORA  $01, X
 D596  D0 28     BNE  $D5C0
 D598  E8        INX  
 D599  E8        INX  
 D59A  20 AA 96  JSR  $96AA
 D59D  A5 16     LDA  $16
 D59F  F0 E2     BEQ  $D583
 D5A1  A9 20     LDA  #$20
 D5A3  24 20     BIT  $20
 D5A5  F0 0D     BEQ  $D5B4
 D5A7  20 5A A1  JSR  $A15A
 D5AA  A0 93     LDY  #$93
 D5AC  A9 B8     LDA  #$B8
 D5AE  20 BE D4  JSR  $D4BE
 D5B1  20 8E 87  JSR  $878E
 D5B4  A0 93     LDY  #$93
 D5B6  A9 B8     LDA  #$B8
 D5B8  20 BE D4  JSR  $D4BE
 D5BB  20 8E 87  JSR  $878E
 D5BE  80 C3     BRA  $D583
 D5C0  B5 00     LDA  $00, X
 D5C2  95 04     STA  $04, X
 D5C4  B5 01     LDA  $01, X
 D5C6  95 05     STA  $05, X
 D5C8  E8        INX  
 D5C9  E8        INX  
 D5CA  E8        INX  
 D5CB  E8        INX  
 D5CC  B5 00     LDA  $00, X
 D5CE  85 22     STA  $22
 D5D0  B5 01     LDA  $01, X
 D5D2  85 23     STA  $23
 D5D4  20 01 96  JSR  $9601
 D5D7  A5 16     LDA  $16
 D5D9  D0 13     BNE  $D5EE
 D5DB  A0 01     LDY  #$01
 D5DD  B1 22     LDA  ($22), Y
 D5DF  29 01     AND  #$01
 D5E1  F0 05     BEQ  $D5E8
 D5E3  A9 02     LDA  #$02
 D5E5  4C 31 D6  JMP  $D631
 D5E8  20 5D 8F  JSR  $8F5D
 D5EB  4C 83 D5  JMP  $D583
 D5EE  A0 01     LDY  #$01
 D5F0  B1 22     LDA  ($22), Y
 D5F2  29 04     AND  #$04
 D5F4  D0 F2     BNE  $D5E8
 D5F6  20 0D 88  JSR  $880D
 D5F9  4C 83 D5  JMP  $D583
 D5FC  E8        INX  
 D5FD  E8        INX  
 D5FE  E8        INX  
 D5FF  E8        INX  
 D600  60        RTS  
 D601  C9 20     CMP  #$20
 D603  90 08     BCC  $D60D
 D605  C9 7F     CMP  #$7F
 D607  B0 03     BCS  $D60C
 D609  38        SEC  
 D60A  80 01     BRA  $D60D
 D60C  18        CLC  
 D60D  60        RTS  
 D60E  C9 00     CMP  #$00
 D610  90 08     BCC  $D61A
 D612  C9 21     CMP  #$21
 D614  B0 03     BCS  $D619
 D616  38        SEC  
 D617  80 01     BRA  $D61A
 D619  18        CLC  
 D61A  60        RTS  
 D61B  E0 77     CPX  #$77
 D61D  10 10     BPL  $D62F
 D61F  60        RTS  
 D620  E0 75     CPX  #$75
 D622  10 0B     BPL  $D62F
 D624  60        RTS  
 D625  E0 73     CPX  #$73
 D627  10 06     BPL  $D62F
 D629  60        RTS  
 D62A  E0 71     CPX  #$71
 D62C  10 01     BPL  $D62F
 D62E  60        RTS  
 D62F  A9 09     LDA  #$09
 D631  0A        ASL  
 D632  A8        TAY  
 D633  B9 AD D2  LDA  $D2AD, Y
 D636  85 28     STA  $28
 D638  C8        INY  
 D639  B9 AD D2  LDA  $D2AD, Y
 D63C  85 29     STA  $29
 D63E  20 54 D6  JSR  $D654
 D641  20 83 89  JSR  $8983
 D644  4C B1 80  JMP  $80B1
 D647  0A        ASL  
 D648  A8        TAY  
 D649  B9 DB D1  LDA  $D1DB, Y
 D64C  85 28     STA  $28
 D64E  C8        INY  
 D64F  B9 DB D1  LDA  $D1DB, Y
 D652  85 29     STA  $29
 D654  A0 00     LDY  #$00
 D656  B1 28     LDA  ($28), Y
 D658  F0 06     BEQ  $D660
 D65A  20 16 8E  JSR  $8E16
 D65D  C8        INY  
 D65E  80 F6     BRA  $D656
 D660  60        RTS  
 D661  20 47 D6  JSR  $D647
 D664  4C 83 89  JMP  $8983
 D667  20 53 A7  JSR  $A753
 D66A  20 7A 93  JSR  $937A
 D66D  20 90 97  JSR  $9790
 D670  20 6E 97  JSR  $976E
 D673  4C AF A4  JMP  $A4AF
 D676  00 00 00 00 00 00 00 00 00 00 00 00 00 00 00 00  |................|
 D686  00 00 00 00 00 00 00 00 00 00 00 00 00 00 00 00  |................|
 D696  00 00 00 00 00 00 00 00 00 00 00 00 00 00 00 00  |................|
 D6A6  00 00 00 00 00 00 00 00 00 00 00 00 00 00 00 00  |................|
 D6B6  00 00 00 00 00 00 00 00 00 00 00 00 00 00 00 00  |................|
 D6C6  00 00 00 00 00 00 00 00 00 00 00 00 00 00 00 00  |................|
 D6D6  00 00 00 00 00 00 00 00 00 00 00 00 00 00 00 00  |................|
 D6E6  00 00 00 00 00 00 00 00 00 00 00 00 00 00 00 00  |................|
 D6F6  00 00 00 00 00 00 00 00 00 00 00 00 00 00 00 00  |................|
 D706  00 00 00 00 00 00 00 00 00 00 00 00 00 00 00 00  |................|
 D716  00 00 00 00 00 00 00 00 00 00 00 00 00 00 00 00  |................|
 D726  00 00 00 00 00 00 00 00 00 00 00 00 00 00 00 00  |................|
 D736  00 00 00 00 00 00 00 00 00 00 00 00 00 00 00 00  |................|
 D746  00 00 00 00 00 00 00 00 00 00 00 00 00 00 00 00  |................|
 D756  00 00 00 00 00 00 00 00 00 00 00 00 00 00 00 00  |................|
 D766  00 00 00 00 00 00 00 00 00 00 00 00 00 00 00 00  |................|
 D776  00 00 00 00 00 00 00 00 00 00 00 00 00 00 00 00  |................|
 D786  00 00 00 00 00 00 00 00 00 00 00 00 00 00 00 00  |................|
 D796  00 00 00 00 00 00 00 00 00 00 00 00 00 00 00 00  |................|
 D7A6  00 00 00 00 00 00 00 00 00 00 00 00 00 00 00 00  |................|
 D7B6  00 00 00 00 00 00 00 00 00 00 00 00 00 00 00 00  |................|
 D7C6  00 00 00 00 00 00 00 00 00 00 00 00 00 00 00 00  |................|
 D7D6  00 00 00 00 00 00 00 00 00 00 00 00 00 00 00 00  |................|
 D7E6  00 00 00 00 00 00 00 00 00 00 00 00 00 00 00 00  |................|
 D7F6  00 00 00 00 00 00 00 00 00 00 00 00 00 00 00 00  |................|
 D806  00 00 00 00 00 00 00 00 00 00 00 00 00 00 00 00  |................|
 D816  00 00 00 00 00 00 00 00 00 00 00 00 00 00 00 00  |................|
 D826  00 00 00 00 00 00 00 00 00 00 00 00 00 00 00 00  |................|
 D836  00 00 00 00 00 00 00 00 00 00 00 00 00 00 00 00  |................|
 D846  00 00 00 00 00 00 00 00 00 00 00 00 00 00 00 00  |................|
 D856  00 00 00 00 00 00 00 00 00 00 00 00 00 00 00 00  |................|
 D866  00 00 00 00 00 00 00 00 00 00 00 00 00 00 00 00  |................|
 D876  00 00 00 00 00 00 00 00 00 00 00 00 00 00 00 00  |................|
 D886  00 00 00 00 00 00 00 00 00 00 00 00 00 00 00 00  |................|
 D896  00 00 00 00 00 00 00 00 00 00 00 00 00 00 00 00  |................|
 D8A6  00 00 00 00 00 00 00 00 00 00 00 00 00 00 00 00  |................|
 D8B6  00 00 00 00 00 00 00 00 00 00 00 00 00 00 00 00  |................|
 D8C6  00 00 00 00 00 00 00 00 00 00 00 00 00 00 00 00  |................|
 D8D6  00 00 00 00 00 00 00 00 00 00 00 00 00 00 00 00  |................|
 D8E6  00 00 00 00 00 00 00 00 00 00 00 00 00 00 00 00  |................|
 D8F6  00 00 00 00 00 00 00 00 00 00 00 00 00 00 00 00  |................|
 D906  00 00 00 00 00 00 00 00 00 00 00 00 00 00 00 00  |................|
 D916  00 00 00 00 00 00 00 00 00 00 00 00 00 00 00 00  |................|
 D926  00 00 00 00 00 00 00 00 00 00 00 00 00 00 00 00  |................|
 D936  00 00 00 00 00 00 00 00 00 00 00 00 00 00 00 00  |................|
 D946  00 00 00 00 00 00 00 00 00 00 00 00 00 00 00 00  |................|
 D956  00 00 00 00 00 00 00 00 00 00 00 00 00 00 00 00  |................|
 D966  00 00 00 00 00 00 00 00 00 00 00 00 00 00 00 00  |................|
 D976  00 00 00 00 00 00 00 00 00 00 00 00 00 00 00 00  |................|
 D986  00 00 00 00 00 00 00 00 00 00 00 00 00 00 00 00  |................|
 D996  00 00 00 00 00 00 00 00 00 00 00 00 00 00 00 00  |................|
 D9A6  00 00 00 00 00 00 00 00 00 00 00 00 00 00 00 00  |................|
 D9B6  00 00 00 00 00 00 00 00 00 00 00 00 00 00 00 00  |................|
 D9C6  00 00 00 00 00 00 00 00 00 00 00 00 00 00 00 00  |................|
 D9D6  00 00 00 00 00 00 00 00 00 00 00 00 00 00 00 00  |................|
 D9E6  00 00 00 00 00 00 00 00 00 00 00 00 00 00 00 00  |................|
 D9F6  00 00 00 00 00 00 00 00 00 00 00 00 00 00 00 00  |................|
 DA06  00 00 00 00 00 00 00 00 00 00 00 00 00 00 00 00  |................|
 DA16  00 00 00 00 00 00 00 00 00 00 00 00 00 00 00 00  |................|
 DA26  00 00 00 00 00 00 00 00 00 00 00 00 00 00 00 00  |................|
 DA36  00 00 00 00 00 00 00 00 00 00 00 00 00 00 00 00  |................|
 DA46  00 00 00 00 00 00 00 00 00 00 00 00 00 00 00 00  |................|
 DA56  00 00 00 00 00 00 00 00 00 00 00 00 00 00 00 00  |................|
 DA66  00 00 00 00 00 00 00 00 00 00 00 00 00 00 00 00  |................|
 DA76  00 00 00 00 00 00 00 00 00 00 00 00 00 00 00 00  |................|
 DA86  00 00 00 00 00 00 00 00 00 00 00 00 00 00 00 00  |................|
 DA96  00 00 00 00 00 00 00 00 00 00 00 00 00 00 00 00  |................|
 DAA6  00 00 00 00 00 00 00 00 00 00 00 00 00 00 00 00  |................|
 DAB6  00 00 00 00 00 00 00 00 00 00 00 00 00 00 00 00  |................|
 DAC6  00 00 00 00 00 00 00 00 00 00 00 00 00 00 00 00  |................|
 DAD6  00 00 00 00 00 00 00 00 00 00 00 00 00 00 00 00  |................|
 DAE6  00 00 00 00 00 00 00 00 00 00 00 00 00 00 00 00  |................|
 DAF6  00 00 00 00 00 00 00 00 00 00 00 00 00 00 00 00  |................|
 DB06  00 00 00 00 00 00 00 00 00 00 00 00 00 00 00 00  |................|
 DB16  00 00 00 00 00 00 00 00 00 00 00 00 00 00 00 00  |................|
 DB26  00 00 00 00 00 00 00 00 00 00 00 00 00 00 00 00  |................|
 DB36  00 00 00 00 00 00 00 00 00 00 00 00 00 00 00 00  |................|
 DB46  00 00 00 00 00 00 00 00 00 00 00 00 00 00 00 00  |................|
 DB56  00 00 00 00 00 00 00 00 00 00 00 00 00 00 00 00  |................|
 DB66  00 00 00 00 00 00 00 00 00 00 00 00 00 00 00 00  |................|
 DB76  00 00 00 00 00 00 00 00 00 00 00 00 00 00 00 00  |................|
 DB86  00 00 00 00 00 00 00 00 00 00 00 00 00 00 00 00  |................|
 DB96  00 00 00 00 00 00 00 00 00 00 00 00 00 00 00 00  |................|
 DBA6  00 00 00 00 00 00 00 00 00 00 00 00 00 00 00 00  |................|
 DBB6  00 00 00 00 00 00 00 00 00 00 00 00 00 00 00 00  |................|
 DBC6  00 00 00 00 00 00 00 00 00 00 00 00 00 00 00 00  |................|
 DBD6  00 00 00 00 00 00 00 00 00 00 00 00 00 00 00 00  |................|
 DBE6  00 00 00 00 00 00 00 00 00 00 00 00 00 00 00 00  |................|
 DBF6  00 00 00 00 00 00 00 00 00 00 00 00 00 00 00 00  |................|
 DC06  00 00 00 00 00 00 00 00 00 00 00 00 00 00 00 00  |................|
 DC16  00 00 00 00 00 00 00 00 00 00 00 00 00 00 00 00  |................|
 DC26  00 00 00 00 00 00 00 00 00 00 00 00 00 00 00 00  |................|
 DC36  00 00 00 00 00 00 00 00 00 00 00 00 00 00 00 00  |................|
 DC46  00 00 00 00 00 00 00 00 00 00 00 00 00 00 00 00  |................|
 DC56  00 00 00 00 00 00 00 00 00 00 00 00 00 00 00 00  |................|
 DC66  00 00 00 00 00 00 00 00 00 00 00 00 00 00 00 00  |................|
 DC76  00 00 00 00 00 00 00 00 00 00 00 00 00 00 00 00  |................|
 DC86  00 00 00 00 00 00 00 00 00 00 00 00 00 00 00 00  |................|
 DC96  00 00 00 00 00 00 00 00 00 00 00 00 00 00 00 00  |................|
 DCA6  00 00 00 00 00 00 00 00 00 00 00 00 00 00 00 00  |................|
 DCB6  00 00 00 00 00 00 00 00 00 00 00 00 00 00 00 00  |................|
 DCC6  00 00 00 00 00 00 00 00 00 00 00 00 00 00 00 00  |................|
 DCD6  00 00 00 00 00 00 00 00 00 00 00 00 00 00 00 00  |................|
 DCE6  00 00 00 00 00 00 00 00 00 00 00 00 00 00 00 00  |................|
 DCF6  00 00 00 00 00 00 00 00 00 00 00 00 00 00 00 00  |................|
 DD06  00 00 00 00 00 00 00 00 00 00 00 00 00 00 00 00  |................|
 DD16  00 00 00 00 00 00 00 00 00 00 00 00 00 00 00 00  |................|
 DD26  00 00 00 00 00 00 00 00 00 00 00 00 00 00 00 00  |................|
 DD36  00 00 00 00 00 00 00 00 00 00 00 00 00 00 00 00  |................|
 DD46  00 00 00 00 00 00 00 00 00 00 00 00 00 00 00 00  |................|
 DD56  00 00 00 00 00 00 00 00 00 00 00 00 00 00 00 00  |................|
 DD66  00 00 00 00 00 00 00 00 00 00 00 00 00 00 00 00  |................|
 DD76  00 00 00 00 00 00 00 00 00 00 00 00 00 00 00 00  |................|
 DD86  00 00 00 00 00 00 00 00 00 00 00 00 00 00 00 00  |................|
 DD96  00 00 00 00 00 00 00 00 00 00 00 00 00 00 00 00  |................|
 DDA6  00 00 00 00 00 00 00 00 00 00 00 00 00 00 00 00  |................|
 DDB6  00 00 00 00 00 00 00 00 00 00 00 00 00 00 00 00  |................|
 DDC6  00 00 00 00 00 00 00 00 00 00 00 00 00 00 00 00  |................|
 DDD6  00 00 00 00 00 00 00 00 00 00 00 00 00 00 00 00  |................|
 DDE6  00 00 00 00 00 00 00 00 00 00 00 00 00 00 00 00  |................|
 DDF6  00 00 00 00 00 00 00 00 00 00 00 00 00 00 00 00  |................|
 DE06  00 00 00 00 00 00 00 00 00 00 00 00 00 00 00 00  |................|
 DE16  00 00 00 00 00 00 00 00 00 00 00 00 00 00 00 00  |................|
 DE26  00 00 00 00 00 00 00 00 00 00 00 00 00 00 00 00  |................|
 DE36  00 00 00 00 00 00 00 00 00 00 00 00 00 00 00 00  |................|
 DE46  00 00 00 00 00 00 00 00 00 00 00 00 00 00 00 00  |................|
 DE56  00 00 00 00 00 00 00 00 00 00 00 00 00 00 00 00  |................|
 DE66  00 00 00 00 00 00 00 00 00 00 00 00 00 00 00 00  |................|
 DE76  00 00 00 00 00 00 00 00 00 00 00 00 00 00 00 00  |................|
 DE86  00 00 00 00 00 00 00 00 00 00 00 00 00 00 00 00  |................|
 DE96  00 00 00 00 00 00 00 00 00 00 00 00 00 00 00 00  |................|
 DEA6  00 00 00 00 00 00 00 00 00 00 00 00 00 00 00 00  |................|
 DEB6  00 00 00 00 00 00 00 00 00 00 00 00 00 00 00 00  |................|
 DEC6  00 00 00 00 00 00 00 00 00 00 00 00 00 00 00 00  |................|
 DED6  00 00 00 00 00 00 00 00 00 00 00 00 00 00 00 00  |................|
 DEE6  00 00 00 00 00 00 00 00 00 00 00 00 00 00 00 00  |................|
 DEF6  00 00 00 00 00 00 00 00 00 00 00 00 00 00 00 00  |................|
 DF06  00 00 00 00 00 00 00 00 00 00 00 00 00 00 00 00  |................|
 DF16  00 00 00 00 00 00 00 00 00 00 00 00 00 00 00 00  |................|
 DF26  00 00 00 00 00 00 00 00 00 00 00 00 00 00 00 00  |................|
 DF36  00 00 00 00 00 00 00 00 00 00 00 00 00 00 00 00  |................|
 DF46  00 00 00 00 00 00 00 00 00 00 00 00 00 00 00 00  |................|
 DF56  00 00 00 00 00 00 00 00 00 00 00 00 00 00 00 00  |................|
 DF66  00 00 00 00 00 00 00 00 00 00 00 00 00 00 00 00  |................|
 DF76  00 00 00 00 00 00 00 00 00 00 00 00 00 00 00 00  |................|
 DF86  00 00 00 00 00 00 00 00 00 00 00 00 00 00 00 00  |................|
 DF96  00 00 00 00 00 00 00 00 00 00 00 00 00 00 00 00  |................|
 DFA6  00 00 00 00 00 00 00 00 00 00 00 00 00 00 00 00  |................|
 DFB6  00 00 00 00 00 00 00 00 00 00 00 00 00 00 00 00  |................|
 DFC6  00 00 00 00 00 00 00 00 00 00 00 00 00 00 00 00  |................|
 DFD6  00 00 00 00 00 00 00 00 00 00 00 00 00 00 00 00  |................|
 DFE6  00 00 00 00 00 00 00 00 00 00 00 00 00 00 00 00  |................|
 DFF6  00 00 00 00 00 00 00 00 00 00 00 00 00 00 00 00  |................|
 E006  00 00 00 00 00 00 00 00 00 00 00 00 00 00 00 00  |................|
 E016  00 00 00 00 00 00 00 00 00 00 00 00 00 00 00 00  |................|
 E026  00 00 00 00 00 00 00 00 00 00 00 00 00 00 00 00  |................|
 E036  00 00 00 00 00 00 00 00 00 00 00 00 00 00 00 00  |................|
 E046  00 00 00 00 00 00 00 00 00 00 00 00 00 00 00 00  |................|
 E056  00 00 00 00 00 00 00 00 00 00 00 00 00 00 00 00  |................|
 E066  00 00 00 00 00 00 00 00 00 00 00 00 00 00 00 00  |................|
 E076  00 00 00 00 00 00 00 00 00 00 00 00 00 00 00 00  |................|
 E086  00 00 00 00 00 00 00 00 00 00 00 00 00 00 00 00  |................|
 E096  00 00 00 00 00 00 00 00 00 00 00 00 00 00 00 00  |................|
 E0A6  00 00 00 00 00 00 00 00 00 00 00 00 00 00 00 00  |................|
 E0B6  00 00 00 00 00 00 00 00 00 00 00 00 00 00 00 00  |................|
 E0C6  00 00 00 00 00 00 00 00 00 00 00 00 00 00 00 00  |................|
 E0D6  00 00 00 00 00 00 00 00 00 00 00 00 00 00 00 00  |................|
 E0E6  00 00 00 00 00 00 00 00 00 00 00 00 00 00 00 00  |................|
 E0F6  00 00 00 00 00 00 00 00 00 00 00 00 00 00 00 00  |................|
 E106  00 00 00 00 00 00 00 00 00 00 00 00 00 00 00 00  |................|
 E116  00 00 00 00 00 00 00 00 00 00 00 00 00 00 00 00  |................|
 E126  00 00 00 00 00 00 00 00 00 00 00 00 00 00 00 00  |................|
 E136  00 00 00 00 00 00 00 00 00 00 00 00 00 00 00 00  |................|
 E146  00 00 00 00 00 00 00 00 00 00 00 00 00 00 00 00  |................|
 E156  00 00 00 00 00 00 00 00 00 00 00 00 00 00 00 00  |................|
 E166  00 00 00 00 00 00 00 00 00 00 00 00 00 00 00 00  |................|
 E176  00 00 00 00 00 00 00 00 00 00 00 00 00 00 00 00  |................|
 E186  00 00 00 00 00 00 00 00 00 00 00 00 00 00 00 00  |................|
 E196  00 00 00 00 00 00 00 00 00 00 00 00 00 00 00 00  |................|
 E1A6  00 00 00 00 00 00 00 00 00 00 00 00 00 00 00 00  |................|
 E1B6  00 00 00 00 00 00 00 00 00 00 00 00 00 00 00 00  |................|
 E1C6  00 00 00 00 00 00 00 00 00 00 00 00 00 00 00 00  |................|
 E1D6  00 00 00 00 00 00 00 00 00 00 00 00 00 00 00 00  |................|
 E1E6  00 00 00 00 00 00 00 00 00 00 00 00 00 00 00 00  |................|
 E1F6  00 00 00 00 00 00 00 00 00 00 00 00 00 00 00 00  |................|
 E206  00 00 00 00 00 00 00 00 00 00 00 00 00 00 00 00  |................|
 E216  00 00 00 00 00 00 00 00 00 00 00 00 00 00 00 00  |................|
 E226  00 00 00 00 00 00 00 00 00 00 00 00 00 00 00 00  |................|
 E236  00 00 00 00 00 00 00 00 00 00 00 00 00 00 00 00  |................|
 E246  00 00 00 00 00 00 00 00 00 00 00 00 00 00 00 00  |................|
 E256  00 00 00 00 00 00 00 00 00 00 00 00 00 00 00 00  |................|
 E266  00 00 00 00 00 00 00 00 00 00 00 00 00 00 00 00  |................|
 E276  00 00 00 00 00 00 00 00 00 00 00 00 00 00 00 00  |................|
 E286  00 00 00 00 00 00 00 00 00 00 00 00 00 00 00 00  |................|
 E296  00 00 00 00 00 00 00 00 00 00 00 00 00 00 00 00  |................|
 E2A6  00 00 00 00 00 00 00 00 00 00 00 00 00 00 00 00  |................|
 E2B6  00 00 00 00 00 00 00 00 00 00 00 00 00 00 00 00  |................|
 E2C6  00 00 00 00 00 00 00 00 00 00 00 00 00 00 00 00  |................|
 E2D6  00 00 00 00 00 00 00 00 00 00 00 00 00 00 00 00  |................|
 E2E6  00 00 00 00 00 00 00 00 00 00 00 00 00 00 00 00  |................|
 E2F6  00 00 00 00 00 00 00 00 00 00 00 00 00 00 00 00  |................|
 E306  00 00 00 00 00 00 00 00 00 00 00 00 00 00 00 00  |................|
 E316  00 00 00 00 00 00 00 00 00 00 00 00 00 00 00 00  |................|
 E326  00 00 00 00 00 00 00 00 00 00 00 00 00 00 00 00  |................|
 E336  00 00 00 00 00 00 00 00 00 00 00 00 00 00 00 00  |................|
 E346  00 00 00 00 00 00 00 00 00 00 00 00 00 00 00 00  |................|
 E356  00 00 00 00 00 00 00 00 00 00 00 00 00 00 00 00  |................|
 E366  00 00 00 00 00 00 00 00 00 00 00 00 00 00 00 00  |................|
 E376  00 00 00 00 00 00 00 00 00 00 00 00 00 00 00 00  |................|
 E386  00 00 00 00 00 00 00 00 00 00 00 00 00 00 00 00  |................|
 E396  00 00 00 00 00 00 00 00 00 00 00 00 00 00 00 00  |................|
 E3A6  00 00 00 00 00 00 00 00 00 00 00 00 00 00 00 00  |................|
 E3B6  00 00 00 00 00 00 00 00 00 00 00 00 00 00 00 00  |................|
 E3C6  00 00 00 00 00 00 00 00 00 00 00 00 00 00 00 00  |................|
 E3D6  00 00 00 00 00 00 00 00 00 00 00 00 00 00 00 00  |................|
 E3E6  00 00 00 00 00 00 00 00 00 00 00 00 00 00 00 00  |................|
 E3F6  00 00 00 00 00 00 00 00 00 00 00 00 00 00 00 00  |................|
 E406  00 00 00 00 00 00 00 00 00 00 00 00 00 00 00 00  |................|
 E416  00 00 00 00 00 00 00 00 00 00 00 00 00 00 00 00  |................|
 E426  00 00 00 00 00 00 00 00 00 00 00 00 00 00 00 00  |................|
 E436  00 00 00 00 00 00 00 00 00 00 00 00 00 00 00 00  |................|
 E446  00 00 00 00 00 00 00 00 00 00 00 00 00 00 00 00  |................|
 E456  00 00 00 00 00 00 00 00 00 00 00 00 00 00 00 00  |................|
 E466  00 00 00 00 00 00 00 00 00 00 00 00 00 00 00 00  |................|
 E476  00 00 00 00 00 00 00 00 00 00 00 00 00 00 00 00  |................|
 E486  00 00 00 00 00 00 00 00 00 00 00 00 00 00 00 00  |................|
 E496  00 00 00 00 00 00 00 00 00 00 00 00 00 00 00 00  |................|
 E4A6  00 00 00 00 00 00 00 00 00 00 00 00 00 00 00 00  |................|
 E4B6  00 00 00 00 00 00 00 00 00 00 00 00 00 00 00 00  |................|
 E4C6  00 00 00 00 00 00 00 00 00 00 00 00 00 00 00 00  |................|
 E4D6  00 00 00 00 00 00 00 00 00 00 00 00 00 00 00 00  |................|
 E4E6  00 00 00 00 00 00 00 00 00 00 00 00 00 00 00 00  |................|
 E4F6  00 00 00 00 00 00 00 00 00 00 00 00 00 00 00 00  |................|
 E506  00 00 00 00 00 00 00 00 00 00 00 00 00 00 00 00  |................|
 E516  00 00 00 00 00 00 00 00 00 00 00 00 00 00 00 00  |................|
 E526  00 00 00 00 00 00 00 00 00 00 00 00 00 00 00 00  |................|
 E536  00 00 00 00 00 00 00 00 00 00 00 00 00 00 00 00  |................|
 E546  00 00 00 00 00 00 00 00 00 00 00 00 00 00 00 00  |................|
 E556  00 00 00 00 00 00 00 00 00 00 00 00 00 00 00 00  |................|
 E566  00 00 00 00 00 00 00 00 00 00 00 00 00 00 00 00  |................|
 E576  00 00 00 00 00 00 00 00 00 00 00 00 00 00 00 00  |................|
 E586  00 00 00 00 00 00 00 00 00 00 00 00 00 00 00 00  |................|
 E596  00 00 00 00 00 00 00 00 00 00 00 00 00 00 00 00  |................|
 E5A6  00 00 00 00 00 00 00 00 00 00 00 00 00 00 00 00  |................|
 E5B6  00 00 00 00 00 00 00 00 00 00 00 00 00 00 00 00  |................|
 E5C6  00 00 00 00 00 00 00 00 00 00 00 00 00 00 00 00  |................|
 E5D6  00 00 00 00 00 00 00 00 00 00 00 00 00 00 00 00  |................|
 E5E6  00 00 00 00 00 00 00 00 00 00 00 00 00 00 00 00  |................|
 E5F6  00 00 00 00 00 00 00 00 00 00 00 00 00 00 00 00  |................|
 E606  00 00 00 00 00 00 00 00 00 00 00 00 00 00 00 00  |................|
 E616  00 00 00 00 00 00 00 00 00 00 00 00 00 00 00 00  |................|
 E626  00 00 00 00 00 00 00 00 00 00 00 00 00 00 00 00  |................|
 E636  00 00 00 00 00 00 00 00 00 00 00 00 00 00 00 00  |................|
 E646  00 00 00 00 00 00 00 00 00 00 00 00 00 00 00 00  |................|
 E656  00 00 00 00 00 00 00 00 00 00 00 00 00 00 00 00  |................|
 E666  00 00 00 00 00 00 00 00 00 00 00 00 00 00 00 00  |................|
 E676  00 00 00 00 00 00 00 00 00 00 00 00 00 00 00 00  |................|
 E686  00 00 00 00 00 00 00 00 00 00 00 00 00 00 00 00  |................|
 E696  00 00 00 00 00 00 00 00 00 00 00 00 00 00 00 00  |................|
 E6A6  00 00 00 00 00 00 00 00 00 00 00 00 00 00 00 00  |................|
 E6B6  00 00 00 00 00 00 00 00 00 00 00 00 00 00 00 00  |................|
 E6C6  00 00 00 00 00 00 00 00 00 00 00 00 00 00 00 00  |................|
 E6D6  00 00 00 00 00 00 00 00 00 00 00 00 00 00 00 00  |................|
 E6E6  00 00 00 00 00 00 00 00 00 00 00 00 00 00 00 00  |................|
 E6F6  00 00 00 00 00 00 00 00 00 00 00 00 00 00 00 00  |................|
 E706  00 00 00 00 00 00 00 00 00 00 00 00 00 00 00 00  |................|
 E716  00 00 00 00 00 00 00 00 00 00 00 00 00 00 00 00  |................|
 E726  00 00 00 00 00 00 00 00 00 00 00 00 00 00 00 00  |................|
 E736  00 00 00 00 00 00 00 00 00 00 00 00 00 00 00 00  |................|
 E746  00 00 00 00 00 00 00 00 00 00 00 00 00 00 00 00  |................|
 E756  00 00 00 00 00 00 00 00 00 00 00 00 00 00 00 00  |................|
 E766  00 00 00 00 00 00 00 00 00 00 00 00 00 00 00 00  |................|
 E776  00 00 00 00 00 00 00 00 00 00 00 00 00 00 00 00  |................|
 E786  00 00 00 00 00 00 00 00 00 00 00 00 00 00 00 00  |................|
 E796  00 00 00 00 00 00 00 00 00 00 00 00 00 00 00 00  |................|
 E7A6  00 00 00 00 00 00 00 00 00 00 00 00 00 00 00 00  |................|
 E7B6  00 00 00 00 00 00 00 00 00 00 00 00 00 00 00 00  |................|
 E7C6  00 00 00 00 00 00 00 00 00 00 00 00 00 00 00 00  |................|
 E7D6  00 00 00 00 00 00 00 00 00 00 00 00 00 00 00 00  |................|
 E7E6  00 00 00 00 00 00 00 00 00 00 00 00 00 00 00 00  |................|
 E7F6  00 00 00 00 00 00 00 00 00 00 00 00 00 00 00 00  |................|
 E806  00 00 00 00 00 00 00 00 00 00 00 00 00 00 00 00  |................|
 E816  00 00 00 00 00 00 00 00 00 00 00 00 00 00 00 00  |................|
 E826  00 00 00 00 00 00 00 00 00 00 00 00 00 00 00 00  |................|
 E836  00 00 00 00 00 00 00 00 00 00 00 00 00 00 00 00  |................|
 E846  00 00 00 00 00 00 00 00 00 00 00 00 00 00 00 00  |................|
 E856  00 00 00 00 00 00 00 00 00 00 00 00 00 00 00 00  |................|
 E866  00 00 00 00 00 00 00 00 00 00 00 00 00 00 00 00  |................|
 E876  00 00 00 00 00 00 00 00 00 00 00 00 00 00 00 00  |................|
 E886  00 00 00 00 00 00 00 00 00 00 00 00 00 00 00 00  |................|
 E896  00 00 00 00 00 00 00 00 00 00 00 00 00 00 00 00  |................|
 E8A6  00 00 00 00 00 00 00 00 00 00 00 00 00 00 00 00  |................|
 E8B6  00 00 00 00 00 00 00 00 00 00 00 00 00 00 00 00  |................|
 E8C6  00 00 00 00 00 00 00 00 00 00 00 00 00 00 00 00  |................|
 E8D6  00 00 00 00 00 00 00 00 00 00 00 00 00 00 00 00  |................|
 E8E6  00 00 00 00 00 00 00 00 00 00 00 00 00 00 00 00  |................|
 E8F6  00 00 00 00 00 00 00 00 00 00 00 00 00 00 00 00  |................|
 E906  00 00 00 00 00 00 00 00 00 00 00 00 00 00 00 00  |................|
 E916  00 00 00 00 00 00 00 00 00 00 00 00 00 00 00 00  |................|
 E926  00 00 00 00 00 00 00 00 00 00 00 00 00 00 00 00  |................|
 E936  00 00 00 00 00 00 00 00 00 00 00 00 00 00 00 00  |................|
 E946  00 00 00 00 00 00 00 00 00 00 00 00 00 00 00 00  |................|
 E956  00 00 00 00 00 00 00 00 00 00 00 00 00 00 00 00  |................|
 E966  00 00 00 00 00 00 00 00 00 00 00 00 00 00 00 00  |................|
 E976  00 00 00 00 00 00 00 00 00 00 00 00 00 00 00 00  |................|
 E986  00 00 00 00 00 00 00 00 00 00 00 00 00 00 00 00  |................|
 E996  00 00 00 00 00 00 00 00 00 00 00 00 00 00 00 00  |................|
 E9A6  00 00 00 00 00 00 00 00 00 00 00 00 00 00 00 00  |................|
 E9B6  00 00 00 00 00 00 00 00 00 00 00 00 00 00 00 00  |................|
 E9C6  00 00 00 00 00 00 00 00 00 00 00 00 00 00 00 00  |................|
 E9D6  00 00 00 00 00 00 00 00 00 00 00 00 00 00 00 00  |................|
 E9E6  00 00 00 00 00 00 00 00 00 00 00 00 00 00 00 00  |................|
 E9F6  00 00 00 00 00 00 00 00 00 00 00 00 00 00 00 00  |................|
 EA06  00 00 00 00 00 00 00 00 00 00 00 00 00 00 00 00  |................|
 EA16  00 00 00 00 00 00 00 00 00 00 00 00 00 00 00 00  |................|
 EA26  00 00 00 00 00 00 00 00 00 00 00 00 00 00 00 00  |................|
 EA36  00 00 00 00 00 00 00 00 00 00 00 00 00 00 00 00  |................|
 EA46  00 00 00 00 00 00 00 00 00 00 00 00 00 00 00 00  |................|
 EA56  00 00 00 00 00 00 00 00 00 00 00 00 00 00 00 00  |................|
 EA66  00 00 00 00 00 00 00 00 00 00 00 00 00 00 00 00  |................|
 EA76  00 00 00 00 00 00 00 00 00 00 00 00 00 00 00 00  |................|
 EA86  00 00 00 00 00 00 00 00 00 00 00 00 00 00 00 00  |................|
 EA96  00 00 00 00 00 00 00 00 00 00 00 00 00 00 00 00  |................|
 EAA6  00 00 00 00 00 00 00 00 00 00 00 00 00 00 00 00  |................|
 EAB6  00 00 00 00 00 00 00 00 00 00 00 00 00 00 00 00  |................|
 EAC6  00 00 00 00 00 00 00 00 00 00 00 00 00 00 00 00  |................|
 EAD6  00 00 00 00 00 00 00 00 00 00 00 00 00 00 00 00  |................|
 EAE6  00 00 00 00 00 00 00 00 00 00 00 00 00 00 00 00  |................|
 EAF6  00 00 00 00 00 00 00 00 00 00 00 00 00 00 00 00  |................|
 EB06  00 00 00 00 00 00 00 00 00 00 00 00 00 00 00 00  |................|
 EB16  00 00 00 00 00 00 00 00 00 00 00 00 00 00 00 00  |................|
 EB26  00 00 00 00 00 00 00 00 00 00 00 00 00 00 00 00  |................|
 EB36  00 00 00 00 00 00 00 00 00 00 00 00 00 00 00 00  |................|
 EB46  00 00 00 00 00 00 00 00 00 00 00 00 00 00 00 00  |................|
 EB56  00 00 00 00 00 00 00 00 00 00 00 00 00 00 00 00  |................|
 EB66  00 00 00 00 00 00 00 00 00 00 00 00 00 00 00 00  |................|
 EB76  00 00 00 00 00 00 00 00 00 00 00 00 00 00 00 00  |................|
 EB86  00 00 00 00 00 00 00 00 00 00 00 00 00 00 00 00  |................|
 EB96  00 00 00 00 00 00 00 00 00 00 00 00 00 00 00 00  |................|
 EBA6  00 00 00 00 00 00 00 00 00 00 00 00 00 00 00 00  |................|
 EBB6  00 00 00 00 00 00 00 00 00 00 00 00 00 00 00 00  |................|
 EBC6  00 00 00 00 00 00 00 00 00 00 00 00 00 00 00 00  |................|
 EBD6  00 00 00 00 00 00 00 00 00 00 00 00 00 00 00 00  |................|
 EBE6  00 00 00 00 00 00 00 00 00 00 00 00 00 00 00 00  |................|
 EBF6  00 00 00 00 00 00 00 00 00 00 00 00 00 00 00 00  |................|
 EC06  00 00 00 00 00 00 00 00 00 00 00 00 00 00 00 00  |................|
 EC16  00 00 00 00 00 00 00 00 00 00 00 00 00 00 00 00  |................|
 EC26  00 00 00 00 00 00 00 00 00 00 00 00 00 00 00 00  |................|
 EC36  00 00 00 00 00 00 00 00 00 00 00 00 00 00 00 00  |................|
 EC46  00 00 00 00 00 00 00 00 00 00 00 00 00 00 00 00  |................|
 EC56  00 00 00 00 00 00 00 00 00 00 00 00 00 00 00 00  |................|
 EC66  00 00 00 00 00 00 00 00 00 00 00 00 00 00 00 00  |................|
 EC76  00 00 00 00 00 00 00 00 00 00 00 00 00 00 00 00  |................|
 EC86  00 00 00 00 00 00 00 00 00 00 00 00 00 00 00 00  |................|
 EC96  00 00 00 00 00 00 00 00 00 00 00 00 00 00 00 00  |................|
 ECA6  00 00 00 00 00 00 00 00 00 00 00 00 00 00 00 00  |................|
 ECB6  00 00 00 00 00 00 00 00 00 00 00 00 00 00 00 00  |................|
 ECC6  00 00 00 00 00 00 00 00 00 00 00 00 00 00 00 00  |................|
 ECD6  00 00 00 00 00 00 00 00 00 00 00 00 00 00 00 00  |................|
 ECE6  00 00 00 00 00 00 00 00 00 00 00 00 00 00 00 00  |................|
 ECF6  00 00 00 00 00 00 00 00 00 00 00 00 00 00 00 00  |................|
 ED06  00 00 00 00 00 00 00 00 00 00 00 00 00 00 00 00  |................|
 ED16  00 00 00 00 00 00 00 00 00 00 00 00 00 00 00 00  |................|
 ED26  00 00 00 00 00 00 00 00 00 00 00 00 00 00 00 00  |................|
 ED36  00 00 00 00 00 00 00 00 00 00 00 00 00 00 00 00  |................|
 ED46  00 00 00 00 00 00 00 00 00 00 00 00 00 00 00 00  |................|
 ED56  00 00 00 00 00 00 00 00 00 00 00 00 00 00 00 00  |................|
 ED66  00 00 00 00 00 00 00 00 00 00 00 00 00 00 00 00  |................|
 ED76  00 00 00 00 00 00 00 00 00 00 00 00 00 00 00 00  |................|
 ED86  00 00 00 00 00 00 00 00 00 00 00 00 00 00 00 00  |................|
 ED96  00 00 00 00 00 00 00 00 00 00 00 00 00 00 00 00  |................|
 EDA6  00 00 00 00 00 00 00 00 00 00 00 00 00 00 00 00  |................|
 EDB6  00 00 00 00 00 00 00 00 00 00 00 00 00 00 00 00  |................|
 EDC6  00 00 00 00 00 00 00 00 00 00 00 00 00 00 00 00  |................|
 EDD6  00 00 00 00 00 00 00 00 00 00 00 00 00 00 00 00  |................|
 EDE6  00 00 00 00 00 00 00 00 00 00 00 00 00 00 00 00  |................|
 EDF6  00 00 00 00 00 00 00 00 00 00 00 00 00 00 00 00  |................|
 EE06  00 00 00 00 00 00 00 00 00 00 00 00 00 00 00 00  |................|
 EE16  00 00 00 00 00 00 00 00 00 00 00 00 00 00 00 00  |................|
 EE26  00 00 00 00 00 00 00 00 00 00 00 00 00 00 00 00  |................|
 EE36  00 00 00 00 00 00 00 00 00 00 00 00 00 00 00 00  |................|
 EE46  00 00 00 00 00 00 00 00 00 00 00 00 00 00 00 00  |................|
 EE56  00 00 00 00 00 00 00 00 00 00 00 00 00 00 00 00  |................|
 EE66  00 00 00 00 00 00 00 00 00 00 00 00 00 00 00 00  |................|
 EE76  00 00 00 00 00 00 00 00 00 00 00 00 00 00 00 00  |................|
 EE86  00 00 00 00 00 00 00 00 00 00 00 00 00 00 00 00  |................|
 EE96  00 00 00 00 00 00 00 00 00 00 00 00 00 00 00 00  |................|
 EEA6  00 00 00 00 00 00 00 00 00 00 00 00 00 00 00 00  |................|
 EEB6  00 00 00 00 00 00 00 00 00 00 00 00 00 00 00 00  |................|
 EEC6  00 00 00 00 00 00 00 00 00 00 00 00 00 00 00 00  |................|
 EED6  00 00 00 00 00 00 00 00 00 00 00 00 00 00 00 00  |................|
 EEE6  00 00 00 00 00 00 00 00 00 00 00 00 00 00 00 00  |................|
 EEF6  00 00 00 00 00 00 00 00 00 00 00 00 00 00 00 00  |................|
 EF06  00 00 00 00 00 00 00 00 00 00 00 00 00 00 00 00  |................|
 EF16  00 00 00 00 00 00 00 00 00 00 00 00 00 00 00 00  |................|
 EF26  00 00 00 00 00 00 00 00 00 00 00 00 00 00 00 00  |................|
 EF36  00 00 00 00 00 00 00 00 00 00 00 00 00 00 00 00  |................|
 EF46  00 00 00 00 00 00 00 00 00 00 00 00 00 00 00 00  |................|
 EF56  00 00 00 00 00 00 00 00 00 00 00 00 00 00 00 00  |................|
 EF66  00 00 00 00 00 00 00 00 00 00 00 00 00 00 00 00  |................|
 EF76  00 00 00 00 00 00 00 00 00 00 00 00 00 00 00 00  |................|
 EF86  00 00 00 00 00 00 00 00 00 00 00 00 00 00 00 00  |................|
 EF96  00 00 00 00 00 00 00 00 00 00 00 00 00 00 00 00  |................|
 EFA6  00 00 00 00 00 00 00 00 00 00 00 00 00 00 00 00  |................|
 EFB6  00 00 00 00 00 00 00 00 00 00 00 00 00 00 00 00  |................|
 EFC6  00 00 00 00 00 00 00 00 00 00 00 00 00 00 00 00  |................|
 EFD6  00 00 00 00 00 00 00 00 00 00 00 00 00 00 00 00  |................|
 EFE6  00 00 00 00 00 00 00 00 00 00 00 00 00 00 00 00  |................|
 EFF6  00 00 00 00 00 00 00 00 00 00                    |..........      |
 F000  78        SEI  
 F001  20 14 F0  JSR  $F014
 F004  A2 00     LDX  #$00
 F006  BD 91 F0  LDA  $F091, X
 F009  F0 06     BEQ  $F011
 F00B  20 84 F0  JSR  $F084
 F00E  E8        INX  
 F00F  80 F5     BRA  $F006
 F011  4C 30 80  JMP  $8030
 F014  A9 F0     LDA  #$F0
 F016  8D 02 80  STA  $8002
 F019  A9 90     LDA  #$90
 F01B  8D 02 80  STA  $8002
 F01E  A9 00     LDA  #$00
 F020  8D 05 80  STA  $8005
 F023  A9 20     LDA  #$20
 F025  8D 02 80  STA  $8002
 F028  A9 30     LDA  #$30
 F02A  8D 02 80  STA  $8002
 F02D  A9 50     LDA  #$50
 F02F  8D 02 80  STA  $8002
 F032  A9 40     LDA  #$40
 F034  8D 02 80  STA  $8002
 F037  A9 C0     LDA  #$C0
 F039  8D 02 80  STA  $8002
 F03C  A9 00     LDA  #$00
 F03E  8D 0D 80  STA  $800D
 F041  A9 60     LDA  #$60
 F043  8D 04 80  STA  $8004
 F046  A9 B0     LDA  #$B0
 F048  8D 02 80  STA  $8002
 F04B  A9 09     LDA  #$09
 F04D  8D 00 80  STA  $8000
 F050  A9 10     LDA  #$10
 F052  8D 02 80  STA  $8002
 F055  A9 93     LDA  #$93
 F057  8D 00 80  STA  $8000
 F05A  A9 17     LDA  #$17
 F05C  8D 00 80  STA  $8000
 F05F  A9 BB     LDA  #$BB
 F061  8D 01 80  STA  $8001
 F064  A9 00     LDA  #$00
 F066  8D 05 80  STA  $8005
 F069  A9 01     LDA  #$01
 F06B  8D 02 80  STA  $8002
 F06E  A9 04     LDA  #$04
 F070  8D 02 80  STA  $8002
 F073  A9 80     LDA  #$80
 F075  8D 02 80  STA  $8002
 F078  60        RTS  
 F079  AD 01 80  LDA  $8001
 F07C  89 01     BIT  #$01
 F07E  F0 F9     BEQ  $F079
 F080  AD 03 80  LDA  $8003
 F083  60        RTS  
 F084  48        PHA  
 F085  AD 01 80  LDA  $8001
 F088  89 04     BIT  #$04
 F08A  F0 F9     BEQ  $F085
 F08C  68        PLA  
 F08D  8D 03 80  STA  $8003
 F090  60        RTS  
 F091  54 61 6C 69 20 46 6F 72 74 68 20 32 20 64 65 66  |Tali Forth 2 def|
 F0A1  61 75 6C 74 20 6B 65 72 6E 65 6C 20 66 6F 72 20  |ault kernel for |
 F0B1  53 4F 36 35 30 32 20 28 32 34 20 4F 63 74 2E 20  |SO6502 (24 Oct. |
 F0C1  32 30 32 30 29 0A 00 00 00 00 00 00 00 00 00 00  |2020)...........|
 F0D1  00 00 00 00 00 00 00 00 00 00 00 00 00 00 00 00  |................|
 F0E1  00 00 00 00 00 00 00 00 00 00 00 00 00 00 00 00  |................|
 F0F1  00 00 00 00 00 00 00 00 00 00 00 00 00 00 00 00  |................|
 F101  00 00 00 00 00 00 00 00 00 00 00 00 00 00 00 00  |................|
 F111  00 00 00 00 00 00 00 00 00 00 00 00 00 00 00 00  |................|
 F121  00 00 00 00 00 00 00 00 00 00 00 00 00 00 00 00  |................|
 F131  00 00 00 00 00 00 00 00 00 00 00 00 00 00 00 00  |................|
 F141  00 00 00 00 00 00 00 00 00 00 00 00 00 00 00 00  |................|
 F151  00 00 00 00 00 00 00 00 00 00 00 00 00 00 00 00  |................|
 F161  00 00 00 00 00 00 00 00 00 00 00 00 00 00 00 00  |................|
 F171  00 00 00 00 00 00 00 00 00 00 00 00 00 00 00 00  |................|
 F181  00 00 00 00 00 00 00 00 00 00 00 00 00 00 00 00  |................|
 F191  00 00 00 00 00 00 00 00 00 00 00 00 00 00 00 00  |................|
 F1A1  00 00 00 00 00 00 00 00 00 00 00 00 00 00 00 00  |................|
 F1B1  00 00 00 00 00 00 00 00 00 00 00 00 00 00 00 00  |................|
 F1C1  00 00 00 00 00 00 00 00 00 00 00 00 00 00 00 00  |................|
 F1D1  00 00 00 00 00 00 00 00 00 00 00 00 00 00 00 00  |................|
 F1E1  00 00 00 00 00 00 00 00 00 00 00 00 00 00 00 00  |................|
 F1F1  00 00 00 00 00 00 00 00 00 00 00 00 00 00 00 00  |................|
 F201  00 00 00 00 00 00 00 00 00 00 00 00 00 00 00 00  |................|
 F211  00 00 00 00 00 00 00 00 00 00 00 00 00 00 00 00  |................|
 F221  00 00 00 00 00 00 00 00 00 00 00 00 00 00 00 00  |................|
 F231  00 00 00 00 00 00 00 00 00 00 00 00 00 00 00 00  |................|
 F241  00 00 00 00 00 00 00 00 00 00 00 00 00 00 00 00  |................|
 F251  00 00 00 00 00 00 00 00 00 00 00 00 00 00 00 00  |................|
 F261  00 00 00 00 00 00 00 00 00 00 00 00 00 00 00 00  |................|
 F271  00 00 00 00 00 00 00 00 00 00 00 00 00 00 00 00  |................|
 F281  00 00 00 00 00 00 00 00 00 00 00 00 00 00 00 00  |................|
 F291  00 00 00 00 00 00 00 00 00 00 00 00 00 00 00 00  |................|
 F2A1  00 00 00 00 00 00 00 00 00 00 00 00 00 00 00 00  |................|
 F2B1  00 00 00 00 00 00 00 00 00 00 00 00 00 00 00 00  |................|
 F2C1  00 00 00 00 00 00 00 00 00 00 00 00 00 00 00 00  |................|
 F2D1  00 00 00 00 00 00 00 00 00 00 00 00 00 00 00 00  |................|
 F2E1  00 00 00 00 00 00 00 00 00 00 00 00 00 00 00 00  |................|
 F2F1  00 00 00 00 00 00 00 00 00 00 00 00 00 00 00 00  |................|
 F301  00 00 00 00 00 00 00 00 00 00 00 00 00 00 00 00  |................|
 F311  00 00 00 00 00 00 00 00 00 00 00 00 00 00 00 00  |................|
 F321  00 00 00 00 00 00 00 00 00 00 00 00 00 00 00 00  |................|
 F331  00 00 00 00 00 00 00 00 00 00 00 00 00 00 00 00  |................|
 F341  00 00 00 00 00 00 00 00 00 00 00 00 00 00 00 00  |................|
 F351  00 00 00 00 00 00 00 00 00 00 00 00 00 00 00 00  |................|
 F361  00 00 00 00 00 00 00 00 00 00 00 00 00 00 00 00  |................|
 F371  00 00 00 00 00 00 00 00 00 00 00 00 00 00 00 00  |................|
 F381  00 00 00 00 00 00 00 00 00 00 00 00 00 00 00 00  |................|
 F391  00 00 00 00 00 00 00 00 00 00 00 00 00 00 00 00  |................|
 F3A1  00 00 00 00 00 00 00 00 00 00 00 00 00 00 00 00  |................|
 F3B1  00 00 00 00 00 00 00 00 00 00 00 00 00 00 00 00  |................|
 F3C1  00 00 00 00 00 00 00 00 00 00 00 00 00 00 00 00  |................|
 F3D1  00 00 00 00 00 00 00 00 00 00 00 00 00 00 00 00  |................|
 F3E1  00 00 00 00 00 00 00 00 00 00 00 00 00 00 00 00  |................|
 F3F1  00 00 00 00 00 00 00 00 00 00 00 00 00 00 00 00  |................|
 F401  00 00 00 00 00 00 00 00 00 00 00 00 00 00 00 00  |................|
 F411  00 00 00 00 00 00 00 00 00 00 00 00 00 00 00 00  |................|
 F421  00 00 00 00 00 00 00 00 00 00 00 00 00 00 00 00  |................|
 F431  00 00 00 00 00 00 00 00 00 00 00 00 00 00 00 00  |................|
 F441  00 00 00 00 00 00 00 00 00 00 00 00 00 00 00 00  |................|
 F451  00 00 00 00 00 00 00 00 00 00 00 00 00 00 00 00  |................|
 F461  00 00 00 00 00 00 00 00 00 00 00 00 00 00 00 00  |................|
 F471  00 00 00 00 00 00 00 00 00 00 00 00 00 00 00 00  |................|
 F481  00 00 00 00 00 00 00 00 00 00 00 00 00 00 00 00  |................|
 F491  00 00 00 00 00 00 00 00 00 00 00 00 00 00 00 00  |................|
 F4A1  00 00 00 00 00 00 00 00 00 00 00 00 00 00 00 00  |................|
 F4B1  00 00 00 00 00 00 00 00 00 00 00 00 00 00 00 00  |................|
 F4C1  00 00 00 00 00 00 00 00 00 00 00 00 00 00 00 00  |................|
 F4D1  00 00 00 00 00 00 00 00 00 00 00 00 00 00 00 00  |................|
 F4E1  00 00 00 00 00 00 00 00 00 00 00 00 00 00 00 00  |................|
 F4F1  00 00 00 00 00 00 00 00 00 00 00 00 00 00 00 00  |................|
 F501  00 00 00 00 00 00 00 00 00 00 00 00 00 00 00 00  |................|
 F511  00 00 00 00 00 00 00 00 00 00 00 00 00 00 00 00  |................|
 F521  00 00 00 00 00 00 00 00 00 00 00 00 00 00 00 00  |................|
 F531  00 00 00 00 00 00 00 00 00 00 00 00 00 00 00 00  |................|
 F541  00 00 00 00 00 00 00 00 00 00 00 00 00 00 00 00  |................|
 F551  00 00 00 00 00 00 00 00 00 00 00 00 00 00 00 00  |................|
 F561  00 00 00 00 00 00 00 00 00 00 00 00 00 00 00 00  |................|
 F571  00 00 00 00 00 00 00 00 00 00 00 00 00 00 00 00  |................|
 F581  00 00 00 00 00 00 00 00 00 00 00 00 00 00 00 00  |................|
 F591  00 00 00 00 00 00 00 00 00 00 00 00 00 00 00 00  |................|
 F5A1  00 00 00 00 00 00 00 00 00 00 00 00 00 00 00 00  |................|
 F5B1  00 00 00 00 00 00 00 00 00 00 00 00 00 00 00 00  |................|
 F5C1  00 00 00 00 00 00 00 00 00 00 00 00 00 00 00 00  |................|
 F5D1  00 00 00 00 00 00 00 00 00 00 00 00 00 00 00 00  |................|
 F5E1  00 00 00 00 00 00 00 00 00 00 00 00 00 00 00 00  |................|
 F5F1  00 00 00 00 00 00 00 00 00 00 00 00 00 00 00 00  |................|
 F601  00 00 00 00 00 00 00 00 00 00 00 00 00 00 00 00  |................|
 F611  00 00 00 00 00 00 00 00 00 00 00 00 00 00 00 00  |................|
 F621  00 00 00 00 00 00 00 00 00 00 00 00 00 00 00 00  |................|
 F631  00 00 00 00 00 00 00 00 00 00 00 00 00 00 00 00  |................|
 F641  00 00 00 00 00 00 00 00 00 00 00 00 00 00 00 00  |................|
 F651  00 00 00 00 00 00 00 00 00 00 00 00 00 00 00 00  |................|
 F661  00 00 00 00 00 00 00 00 00 00 00 00 00 00 00 00  |................|
 F671  00 00 00 00 00 00 00 00 00 00 00 00 00 00 00 00  |................|
 F681  00 00 00 00 00 00 00 00 00 00 00 00 00 00 00 00  |................|
 F691  00 00 00 00 00 00 00 00 00 00 00 00 00 00 00 00  |................|
 F6A1  00 00 00 00 00 00 00 00 00 00 00 00 00 00 00 00  |................|
 F6B1  00 00 00 00 00 00 00 00 00 00 00 00 00 00 00 00  |................|
 F6C1  00 00 00 00 00 00 00 00 00 00 00 00 00 00 00 00  |................|
 F6D1  00 00 00 00 00 00 00 00 00 00 00 00 00 00 00 00  |................|
 F6E1  00 00 00 00 00 00 00 00 00 00 00 00 00 00 00 00  |................|
 F6F1  00 00 00 00 00 00 00 00 00 00 00 00 00 00 00 00  |................|
 F701  00 00 00 00 00 00 00 00 00 00 00 00 00 00 00 00  |................|
 F711  00 00 00 00 00 00 00 00 00 00 00 00 00 00 00 00  |................|
 F721  00 00 00 00 00 00 00 00 00 00 00 00 00 00 00 00  |................|
 F731  00 00 00 00 00 00 00 00 00 00 00 00 00 00 00 00  |................|
 F741  00 00 00 00 00 00 00 00 00 00 00 00 00 00 00 00  |................|
 F751  00 00 00 00 00 00 00 00 00 00 00 00 00 00 00 00  |................|
 F761  00 00 00 00 00 00 00 00 00 00 00 00 00 00 00 00  |................|
 F771  00 00 00 00 00 00 00 00 00 00 00 00 00 00 00 00  |................|
 F781  00 00 00 00 00 00 00 00 00 00 00 00 00 00 00 00  |................|
 F791  00 00 00 00 00 00 00 00 00 00 00 00 00 00 00 00  |................|
 F7A1  00 00 00 00 00 00 00 00 00 00 00 00 00 00 00 00  |................|
 F7B1  00 00 00 00 00 00 00 00 00 00 00 00 00 00 00 00  |................|
 F7C1  00 00 00 00 00 00 00 00 00 00 00 00 00 00 00 00  |................|
 F7D1  00 00 00 00 00 00 00 00 00 00 00 00 00 00 00 00  |................|
 F7E1  00 00 00 00 00 00 00 00 00 00 00 00 00 00 00 00  |................|
 F7F1  00 00 00 00 00 00 00 00 00 00 00 00 00 00 00 00  |................|
 F801  00 00 00 00 00 00 00 00 00 00 00 00 00 00 00 00  |................|
 F811  00 00 00 00 00 00 00 00 00 00 00 00 00 00 00 00  |................|
 F821  00 00 00 00 00 00 00 00 00 00 00 00 00 00 00 00  |................|
 F831  00 00 00 00 00 00 00 00 00 00 00 00 00 00 00 00  |................|
 F841  00 00 00 00 00 00 00 00 00 00 00 00 00 00 00 00  |................|
 F851  00 00 00 00 00 00 00 00 00 00 00 00 00 00 00 00  |................|
 F861  00 00 00 00 00 00 00 00 00 00 00 00 00 00 00 00  |................|
 F871  00 00 00 00 00 00 00 00 00 00 00 00 00 00 00 00  |................|
 F881  00 00 00 00 00 00 00 00 00 00 00 00 00 00 00 00  |................|
 F891  00 00 00 00 00 00 00 00 00 00 00 00 00 00 00 00  |................|
 F8A1  00 00 00 00 00 00 00 00 00 00 00 00 00 00 00 00  |................|
 F8B1  00 00 00 00 00 00 00 00 00 00 00 00 00 00 00 00  |................|
 F8C1  00 00 00 00 00 00 00 00 00 00 00 00 00 00 00 00  |................|
 F8D1  00 00 00 00 00 00 00 00 00 00 00 00 00 00 00 00  |................|
 F8E1  00 00 00 00 00 00 00 00 00 00 00 00 00 00 00 00  |................|
 F8F1  00 00 00 00 00 00 00 00 00 00 00 00 00 00 00 00  |................|
 F901  00 00 00 00 00 00 00 00 00 00 00 00 00 00 00 00  |................|
 F911  00 00 00 00 00 00 00 00 00 00 00 00 00 00 00 00  |................|
 F921  00 00 00 00 00 00 00 00 00 00 00 00 00 00 00 00  |................|
 F931  00 00 00 00 00 00 00 00 00 00 00 00 00 00 00 00  |................|
 F941  00 00 00 00 00 00 00 00 00 00 00 00 00 00 00 00  |................|
 F951  00 00 00 00 00 00 00 00 00 00 00 00 00 00 00 00  |................|
 F961  00 00 00 00 00 00 00 00 00 00 00 00 00 00 00 00  |................|
 F971  00 00 00 00 00 00 00 00 00 00 00 00 00 00 00 00  |................|
 F981  00 00 00 00 00 00 00 00 00 00 00 00 00 00 00 00  |................|
 F991  00 00 00 00 00 00 00 00 00 00 00 00 00 00 00 00  |................|
 F9A1  00 00 00 00 00 00 00 00 00 00 00 00 00 00 00 00  |................|
 F9B1  00 00 00 00 00 00 00 00 00 00 00 00 00 00 00 00  |................|
 F9C1  00 00 00 00 00 00 00 00 00 00 00 00 00 00 00 00  |................|
 F9D1  00 00 00 00 00 00 00 00 00 00 00 00 00 00 00 00  |................|
 F9E1  00 00 00 00 00 00 00 00 00 00 00 00 00 00 00 00  |................|
 F9F1  00 00 00 00 00 00 00 00 00 00 00 00 00 00 00 00  |................|
 FA01  00 00 00 00 00 00 00 00 00 00 00 00 00 00 00 00  |................|
 FA11  00 00 00 00 00 00 00 00 00 00 00 00 00 00 00 00  |................|
 FA21  00 00 00 00 00 00 00 00 00 00 00 00 00 00 00 00  |................|
 FA31  00 00 00 00 00 00 00 00 00 00 00 00 00 00 00 00  |................|
 FA41  00 00 00 00 00 00 00 00 00 00 00 00 00 00 00 00  |................|
 FA51  00 00 00 00 00 00 00 00 00 00 00 00 00 00 00 00  |................|
 FA61  00 00 00 00 00 00 00 00 00 00 00 00 00 00 00 00  |................|
 FA71  00 00 00 00 00 00 00 00 00 00 00 00 00 00 00 00  |................|
 FA81  00 00 00 00 00 00 00 00 00 00 00 00 00 00 00 00  |................|
 FA91  00 00 00 00 00 00 00 00 00 00 00 00 00 00 00 00  |................|
 FAA1  00 00 00 00 00 00 00 00 00 00 00 00 00 00 00 00  |................|
 FAB1  00 00 00 00 00 00 00 00 00 00 00 00 00 00 00 00  |................|
 FAC1  00 00 00 00 00 00 00 00 00 00 00 00 00 00 00 00  |................|
 FAD1  00 00 00 00 00 00 00 00 00 00 00 00 00 00 00 00  |................|
 FAE1  00 00 00 00 00 00 00 00 00 00 00 00 00 00 00 00  |................|
 FAF1  00 00 00 00 00 00 00 00 00 00 00 00 00 00 00 00  |................|
 FB01  00 00 00 00 00 00 00 00 00 00 00 00 00 00 00 00  |................|
 FB11  00 00 00 00 00 00 00 00 00 00 00 00 00 00 00 00  |................|
 FB21  00 00 00 00 00 00 00 00 00 00 00 00 00 00 00 00  |................|
 FB31  00 00 00 00 00 00 00 00 00 00 00 00 00 00 00 00  |................|
 FB41  00 00 00 00 00 00 00 00 00 00 00 00 00 00 00 00  |................|
 FB51  00 00 00 00 00 00 00 00 00 00 00 00 00 00 00 00  |................|
 FB61  00 00 00 00 00 00 00 00 00 00 00 00 00 00 00 00  |................|
 FB71  00 00 00 00 00 00 00 00 00 00 00 00 00 00 00 00  |................|
 FB81  00 00 00 00 00 00 00 00 00 00 00 00 00 00 00 00  |................|
 FB91  00 00 00 00 00 00 00 00 00 00 00 00 00 00 00 00  |................|
 FBA1  00 00 00 00 00 00 00 00 00 00 00 00 00 00 00 00  |................|
 FBB1  00 00 00 00 00 00 00 00 00 00 00 00 00 00 00 00  |................|
 FBC1  00 00 00 00 00 00 00 00 00 00 00 00 00 00 00 00  |................|
 FBD1  00 00 00 00 00 00 00 00 00 00 00 00 00 00 00 00  |................|
 FBE1  00 00 00 00 00 00 00 00 00 00 00 00 00 00 00 00  |................|
 FBF1  00 00 00 00 00 00 00 00 00 00 00 00 00 00 00 00  |................|
 FC01  00 00 00 00 00 00 00 00 00 00 00 00 00 00 00 00  |................|
 FC11  00 00 00 00 00 00 00 00 00 00 00 00 00 00 00 00  |................|
 FC21  00 00 00 00 00 00 00 00 00 00 00 00 00 00 00 00  |................|
 FC31  00 00 00 00 00 00 00 00 00 00 00 00 00 00 00 00  |................|
 FC41  00 00 00 00 00 00 00 00 00 00 00 00 00 00 00 00  |................|
 FC51  00 00 00 00 00 00 00 00 00 00 00 00 00 00 00 00  |................|
 FC61  00 00 00 00 00 00 00 00 00 00 00 00 00 00 00 00  |................|
 FC71  00 00 00 00 00 00 00 00 00 00 00 00 00 00 00 00  |................|
 FC81  00 00 00 00 00 00 00 00 00 00 00 00 00 00 00 00  |................|
 FC91  00 00 00 00 00 00 00 00 00 00 00 00 00 00 00 00  |................|
 FCA1  00 00 00 00 00 00 00 00 00 00 00 00 00 00 00 00  |................|
 FCB1  00 00 00 00 00 00 00 00 00 00 00 00 00 00 00 00  |................|
 FCC1  00 00 00 00 00 00 00 00 00 00 00 00 00 00 00 00  |................|
 FCD1  00 00 00 00 00 00 00 00 00 00 00 00 00 00 00 00  |................|
 FCE1  00 00 00 00 00 00 00 00 00 00 00 00 00 00 00 00  |................|
 FCF1  00 00 00 00 00 00 00 00 00 00 00 00 00 00 00 00  |................|
 FD01  00 00 00 00 00 00 00 00 00 00 00 00 00 00 00 00  |................|
 FD11  00 00 00 00 00 00 00 00 00 00 00 00 00 00 00 00  |................|
 FD21  00 00 00 00 00 00 00 00 00 00 00 00 00 00 00 00  |................|
 FD31  00 00 00 00 00 00 00 00 00 00 00 00 00 00 00 00  |................|
 FD41  00 00 00 00 00 00 00 00 00 00 00 00 00 00 00 00  |................|
 FD51  00 00 00 00 00 00 00 00 00 00 00 00 00 00 00 00  |................|
 FD61  00 00 00 00 00 00 00 00 00 00 00 00 00 00 00 00  |................|
 FD71  00 00 00 00 00 00 00 00 00 00 00 00 00 00 00 00  |................|
 FD81  00 00 00 00 00 00 00 00 00 00 00 00 00 00 00 00  |................|
 FD91  00 00 00 00 00 00 00 00 00 00 00 00 00 00 00 00  |................|
 FDA1  00 00 00 00 00 00 00 00 00 00 00 00 00 00 00 00  |................|
 FDB1  00 00 00 00 00 00 00 00 00 00 00 00 00 00 00 00  |................|
 FDC1  00 00 00 00 00 00 00 00 00 00 00 00 00 00 00 00  |................|
 FDD1  00 00 00 00 00 00 00 00 00 00 00 00 00 00 00 00  |................|
 FDE1  00 00 00 00 00 00 00 00 00 00 00 00 00 00 00 00  |................|
 FDF1  00 00 00 00 00 00 00 00 00 00 00 00 00 00 00 00  |................|
 FE01  00 00 00 00 00 00 00 00 00 00 00 00 00 00 00 00  |................|
 FE11  00 00 00 00 00 00 00 00 00 00 00 00 00 00 00 00  |................|
 FE21  00 00 00 00 00 00 00 00 00 00 00 00 00 00 00 00  |................|
 FE31  00 00 00 00 00 00 00 00 00 00 00 00 00 00 00 00  |................|
 FE41  00 00 00 00 00 00 00 00 00 00 00 00 00 00 00 00  |................|
 FE51  00 00 00 00 00 00 00 00 00 00 00 00 00 00 00 00  |................|
 FE61  00 00 00 00 00 00 00 00 00 00 00 00 00 00 00 00  |................|
 FE71  00 00 00 00 00 00 00 00 00 00 00 00 00 00 00 00  |................|
 FE81  00 00 00 00 00 00 00 00 00 00 00 00 00 00 00 00  |................|
 FE91  00 00 00 00 00 00 00 00 00 00 00 00 00 00 00 00  |................|
 FEA1  00 00 00 00 00 00 00 00 00 00 00 00 00 00 00 00  |................|
 FEB1  00 00 00 00 00 00 00 00 00 00 00 00 00 00 00 00  |................|
 FEC1  00 00 00 00 00 00 00 00 00 00 00 00 00 00 00 00  |................|
 FED1  00 00 00 00 00 00 00 00 00 00 00 00 00 00 00 00  |................|
 FEE1  00 00 00 00 00 00 00 00 00 00 00 00 00 00 00 00  |................|
 FEF1  00 00 00 00 00 00 00 00 00 00 00 00 00 00 00 00  |................|
 FF01  00 00 00 00 00 00 00 00 00 00 00 00 00 00 00 00  |................|
 FF11  00 00 00 00 00 00 00 00 00 00 00 00 00 00 00 00  |................|
 FF21  00 00 00 00 00 00 00 00 00 00 00 00 00 00 00 00  |................|
 FF31  00 00 00 00 00 00 00 00 00 00 00 00 00 00 00 00  |................|
 FF41  00 00 00 00 00 00 00 00 00 00 00 00 00 00 00 00  |................|
 FF51  00 00 00 00 00 00 00 00 00 00 00 00 00 00 00 00  |................|
 FF61  00 00 00 00 00 00 00 00 00 00 00 00 00 00 00 00  |................|
 FF71  00 00 00 00 00 00 00 00 00 00 00 00 00 00 00 00  |................|
 FF81  00 00 00 00 00 00 00 00 00 00 00 00 00 00 00 00  |................|
 FF91  00 00 00 00 00 00 00 00 00 00 00 00 00 00 00 00  |................|
 FFA1  00 00 00 00 00 00 00 00 00 00 00 00 00 00 00 00  |................|
 FFB1  00 00 00 00 00 00 00 00 00 00 00 00 00 00 00 00  |................|
 FFC1  00 00 00 00 00 00 00 00 00 00 00 00 00 00 00 00  |................|
 FFD1  00 00 00 00 00 00 00 00 00 00 00 00 00 00 00 00  |................|
 FFE1  00 00 00 00 00 00 00 00 00 00 00 00 00 00 00 00  |................|
 FFF1  00 00 00 00 00 00 00 00 00 00 F0 00 F0 00 F0     |............... |
